	.text
	.def	@feat.00;
	.scl	3;
	.type	0;
	.endef
	.globl	@feat.00
.set @feat.00, 0
	.file	"Test.apoc"
	.def	main;
	.scl	2;
	.type	32;
	.endef
	.globl	main
	.p2align	4, 0x90
main:
.Lfunc_begin0:
	.cv_func_id 0
	.cv_file	1 "E:\\C_Projects\\Apocalypse\\Test.apoc"
	.cv_loc	0 1 6 0
.seh_proc main
	pushq	%rbp
	.seh_pushreg %rbp
	pushq	%rsi
	.seh_pushreg %rsi
	subq	$744, %rsp
	.seh_stackalloc 744
	leaq	128(%rsp), %rbp
	.seh_setframe %rbp, 128
	vmovaps	%xmm6, 592(%rbp)
	.seh_savexmm %xmm6, 720
	.seh_endprologue
	andq	$-256, %rsp
	movq	%rcx, 136(%rsp)
.Ltmp0:
	.cv_loc	0 1 7 2
	vxorps	%xmm0, %xmm0, %xmm0
	vmovaps	%ymm0, 256(%rsp)
	vmovaps	%ymm0, 288(%rsp)
	vmovaps	%ymm0, 320(%rsp)
	vmovaps	%ymm0, 352(%rsp)
	vmovaps	%ymm0, 384(%rsp)
	vmovaps	%ymm0, 416(%rsp)
	vmovaps	%ymm0, 448(%rsp)
	vmovaps	%ymm0, 480(%rsp)
	vmovups	%ymm0, 496(%rsp)
	leaq	256(%rsp), %rsi
	movq	%rsi, 64(%rsp)
	leaq	.L__unnamed_1(%rip), %rdx
	leaq	64(%rsp), %rcx
	vzeroupper
	callq	init_builder
	.cv_loc	0 1 8 2
	leaq	.L__unnamed_2(%rip), %rdx
	movq	%rsi, %rcx
	callq	"overload[x]="
	.cv_loc	0 1 9 2
	vxorps	%xmm6, %xmm6, %xmm6
	vmovaps	%xmm6, 48(%rsp)
	leaq	48(%rsp), %rax
	movq	%rax, 72(%rsp)
	leaq	72(%rsp), %rcx
	movq	%rsi, %rdx
	callq	builder_to_string
	.cv_loc	0 1 11 7
	movq	48(%rsp), %rdx
	movq	56(%rsp), %r8
	movabsq	$42949672964, %rax
	movq	%rax, 160(%rsp)
	movabsq	$4621888360433242341, %rax
	movq	%rax, 80(%rsp)
	vmovaps	%xmm6, 96(%rsp)
	leaq	160(%rsp), %r9
	movq	%r9, 96(%rsp)
	leaq	80(%rsp), %rax
	movq	%rax, 104(%rsp)
	movq	%rax, 32(%rsp)
	leaq	144(%rsp), %rcx
	callq	"print!@string!@-"
	movabsq	$17179869187, %rax
	.cv_loc	0 1 12 7
	movq	%rax, 208(%rsp)
	movq	$20, 88(%rsp)
	vmovaps	%xmm6, 112(%rsp)
	leaq	208(%rsp), %r8
	movq	%r8, 112(%rsp)
	leaq	88(%rsp), %r9
	movq	%r9, 120(%rsp)
	leaq	.L__unnamed_3(%rip), %rdx
	leaq	152(%rsp), %rcx
	callq	"print!@* u8!@-"
	.cv_loc	0 1 13 5
	xorl	%eax, %eax
	vmovaps	592(%rbp), %xmm6
	leaq	616(%rbp), %rsp
	popq	%rsi
	popq	%rbp
	retq
.Ltmp1:
.Lfunc_end0:
	.seh_endproc

	.def	builder_to_string;
	.scl	2;
	.type	32;
	.endef
	.globl	builder_to_string
	.p2align	4, 0x90
builder_to_string:
.Lfunc_begin1:
	.cv_func_id 1
	.cv_file	2 "E:\\C_Projects\\Apocalypse\\Standard\\String.apoc"
	.cv_loc	1 2 18 0
.seh_proc builder_to_string
	pushq	%rsi
	.seh_pushreg %rsi
	subq	$144, %rsp
	.seh_stackalloc 144
	.seh_endprologue
	movq	%rcx, 88(%rsp)
	movq	%rdx, 96(%rsp)
.Ltmp2:
	.cv_loc	1 2 19 2
	vxorps	%xmm0, %xmm0, %xmm0
	vmovaps	%xmm0, 64(%rsp)
	.cv_loc	1 2 20 2
	movq	$0, 48(%rsp)
	.cv_loc	1 2 21 2
	movq	%rdx, 40(%rsp)
	.cv_loc	1 2 22 2
	movq	$0, 104(%rsp)
	.p2align	4, 0x90
.LBB1_1:
	movq	40(%rsp), %rax
	cmpq	$0, 264(%rax)
	je	.LBB1_3
	.cv_loc	1 2 23 3
	movq	40(%rsp), %rax
	movq	256(%rax), %rcx
	addq	%rcx, 48(%rsp)
	.cv_loc	1 2 24 3
	movq	264(%rax), %rax
	movq	%rax, 40(%rsp)
	.cv_loc	1 2 25 2
	incq	104(%rsp)
	jmp	.LBB1_1
.LBB1_3:
	.cv_loc	1 2 26 2
	movq	48(%rsp), %rdx
	movq	40(%rsp), %rax
	addq	256(%rax), %rdx
	movq	%rdx, 48(%rsp)
	leaq	120(%rsp), %rcx
	.cv_loc	1 2 27 2
	callq	mem_alloc
	movq	%rax, 64(%rsp)
	.cv_loc	1 2 28 2
	movq	48(%rsp), %rax
	movq	%rax, 72(%rsp)
	.cv_loc	1 2 30 2
	movq	$0, 56(%rsp)
	.cv_loc	1 2 31 2
	movq	$0, 112(%rsp)
	leaq	128(%rsp), %rsi
	.p2align	4, 0x90
.LBB1_4:
	movq	40(%rsp), %rax
	cmpq	$0, 264(%rax)
	je	.LBB1_6
	.cv_loc	1 2 32 7
	movq	56(%rsp), %rdx
	shlq	$8, %rdx
	addq	64(%rsp), %rdx
	movq	40(%rsp), %r8
	movq	256(%r8), %r9
	movq	%rsi, %rcx
	callq	copy
	.cv_loc	1 2 33 3
	movq	40(%rsp), %rax
	movq	264(%rax), %rax
	.cv_loc	1 2 34 3
	incq	56(%rsp)
	.cv_loc	1 2 33 3
	movq	%rax, 40(%rsp)
	.cv_loc	1 2 35 2
	incq	112(%rsp)
	jmp	.LBB1_4
.LBB1_6:
	.cv_loc	1 2 36 6
	movq	56(%rsp), %rdx
	shlq	$8, %rdx
	addq	64(%rsp), %rdx
	movq	40(%rsp), %r8
	movq	256(%r8), %r9
	leaq	136(%rsp), %rcx
	callq	copy
	.cv_loc	1 2 37 2
	movq	96(%rsp), %rax
	movq	256(%rax), %rax
	addq	%rax, 48(%rsp)
	.cv_loc	1 2 38 5
	movq	88(%rsp), %rax
	movq	(%rax), %rax
	vmovaps	64(%rsp), %xmm0
	vmovups	%xmm0, (%rax)
	addq	$144, %rsp
	popq	%rsi
	retq
.Ltmp3:
.Lfunc_end1:
	.seh_endproc

	.def	init_builder;
	.scl	2;
	.type	32;
	.endef
	.globl	init_builder
	.p2align	4, 0x90
init_builder:
.Lfunc_begin2:
	.cv_func_id 2
	.cv_loc	2 2 42 0
.seh_proc init_builder
	pushq	%rbp
	.seh_pushreg %rbp
	pushq	%rsi
	.seh_pushreg %rsi
	subq	$744, %rsp
	.seh_stackalloc 744
	leaq	128(%rsp), %rbp
	.seh_setframe %rbp, 128
	vmovaps	%xmm8, 592(%rbp)
	.seh_savexmm %xmm8, 720
	vmovaps	%xmm7, 576(%rbp)
	.seh_savexmm %xmm7, 704
	vmovaps	%xmm6, 560(%rbp)
	.seh_savexmm %xmm6, 688
	.seh_endprologue
	andq	$-256, %rsp
	movq	%rcx, 240(%rsp)
	movq	%rdx, 232(%rsp)
.Ltmp4:
	.cv_loc	2 2 43 2
	vxorps	%xmm0, %xmm0, %xmm0
	vmovaps	%ymm0, 256(%rsp)
	vmovaps	%ymm0, 288(%rsp)
	vmovaps	%ymm0, 320(%rsp)
	vmovaps	%ymm0, 352(%rsp)
	vmovaps	%ymm0, 384(%rsp)
	vmovaps	%ymm0, 416(%rsp)
	vmovaps	%ymm0, 448(%rsp)
	vmovaps	%ymm0, 480(%rsp)
	vmovups	%ymm0, 496(%rsp)
	leaq	256(%rsp), %rax
	.cv_loc	2 2 44 2
	movq	%rax, 208(%rsp)
	.cv_loc	2 2 45 2
	movq	$0, 224(%rsp)
	.cv_loc	2 2 46 2
	movq	$0, 216(%rsp)
	leaq	248(%rsp), %rsi
	jmp	.LBB2_1
	.p2align	4, 0x90
.LBB2_4:
	.cv_loc	2 2 55 2
	incq	216(%rsp)
.LBB2_1:
	.cv_loc	2 2 46 2
	movq	224(%rsp), %rax
	shlq	$8, %rax
	addq	216(%rsp), %rax
	movq	232(%rsp), %rcx
	cmpb	$0, (%rcx,%rax)
	je	.LBB2_5
	.cv_loc	2 2 47 3
	movq	216(%rsp), %rax
	movq	224(%rsp), %rcx
	shlq	$8, %rcx
	addq	%rax, %rcx
	movq	232(%rsp), %rdx
	movzbl	(%rdx,%rcx), %ecx
	movq	208(%rsp), %rdx
	movb	%cl, (%rdx,%rax)
	.cv_loc	2 2 48 3
	movq	208(%rsp), %rax
	incq	256(%rax)
	.cv_loc	2 2 49 3
	cmpq	$256, 216(%rsp)
	.cv_loc	2 2 55 2
	jne	.LBB2_4
	.cv_loc	2 2 50 4
	movq	$0, 216(%rsp)
	.cv_loc	2 2 51 4
	incq	224(%rsp)
	.cv_loc	2 2 52 4
	movl	$272, %edx
	movq	%rsi, %rcx
	vzeroupper
	callq	mem_alloc
	movq	208(%rsp), %rcx
	movq	%rax, 264(%rcx)
	.cv_loc	2 2 53 4
	movq	208(%rsp), %rax
	movq	264(%rax), %rax
	movq	%rax, 208(%rsp)
	jmp	.LBB2_4
.LBB2_5:
	.cv_loc	2 2 56 5
	movq	240(%rsp), %rax
	movq	(%rax), %rax
	vmovaps	448(%rsp), %ymm8
	vmovaps	480(%rsp), %ymm1
	vmovaps	416(%rsp), %ymm2
	vmovaps	384(%rsp), %ymm3
	vmovaps	256(%rsp), %ymm4
	vmovaps	288(%rsp), %ymm5
	vmovaps	320(%rsp), %ymm6
	vmovaps	352(%rsp), %ymm7
	vmovaps	512(%rsp), %xmm0
	vmovaps	%xmm0, 256(%rax)
	vmovaps	%ymm5, 32(%rax)
	vmovaps	%ymm4, (%rax)
	vmovaps	%ymm3, 128(%rax)
	vmovaps	%ymm2, 160(%rax)
	vmovaps	%ymm1, 224(%rax)
	vmovaps	%ymm8, 192(%rax)
	vmovaps	%ymm7, 96(%rax)
	vmovaps	%ymm6, 64(%rax)
	vmovaps	560(%rbp), %xmm6
	vmovaps	576(%rbp), %xmm7
	vmovaps	592(%rbp), %xmm8
	leaq	616(%rbp), %rsp
	popq	%rsi
	popq	%rbp
	vzeroupper
	retq
.Ltmp5:
.Lfunc_end2:
	.seh_endproc

	.def	compare;
	.scl	2;
	.type	32;
	.endef
	.globl	compare
	.p2align	4, 0x90
compare:
.Lfunc_begin3:
	.cv_func_id 3
	.cv_loc	3 2 112 0
.seh_proc compare
	subq	$56, %rsp
	.seh_stackalloc 56
	.seh_endprologue
	movq	96(%rsp), %rax
	movq	%rcx, 48(%rsp)
	vxorps	%xmm0, %xmm0, %xmm0
	vmovaps	%xmm0, 16(%rsp)
	movq	%r8, 24(%rsp)
	movq	%rdx, 16(%rsp)
	vmovaps	%xmm0, 32(%rsp)
	movq	%rax, 40(%rsp)
	movq	%r9, 32(%rsp)
.Ltmp6:
	.cv_loc	3 2 113 2
	cmpq	%rax, %r8
	.cv_loc	3 2 116 2
	je	.LBB3_3
.LBB3_1:
	xorl	%eax, %eax
	jmp	.LBB3_2
.LBB3_3:
	movq	$0, 8(%rsp)
	.p2align	4, 0x90
.LBB3_4:
	movq	8(%rsp), %rax
	cmpq	24(%rsp), %rax
	jge	.LBB3_7
	.cv_loc	3 2 117 3
	movq	8(%rsp), %rax
	movq	16(%rsp), %rcx
	movzbl	(%rcx,%rax), %ecx
	movq	32(%rsp), %rdx
	cmpb	(%rdx,%rax), %cl
	.cv_loc	3 2 116 2
	jne	.LBB3_1
	incq	8(%rsp)
	jmp	.LBB3_4
.LBB3_7:
	.cv_loc	3 2 118 5
	movb	$1, %al
.LBB3_2:
	addq	$56, %rsp
	retq
.Ltmp7:
.Lfunc_end3:
	.seh_endproc

	.def	to_string;
	.scl	2;
	.type	32;
	.endef
	.globl	to_string
	.p2align	4, 0x90
to_string:
.Lfunc_begin4:
	.cv_func_id 4
	.cv_loc	4 2 122 0
.seh_proc to_string
	subq	$120, %rsp
	.seh_stackalloc 120
	.seh_endprologue
	movq	%rcx, 72(%rsp)
	movq	%rdx, 80(%rsp)
	leaq	96(%rsp), %rcx
.Ltmp8:
	.cv_loc	4 2 123 2
	callq	len
	movq	%rax, 40(%rsp)
	leaq	104(%rsp), %rcx
	.cv_loc	4 2 124 2
	movq	%rax, %rdx
	callq	mem_alloc
	movq	%rax, 88(%rsp)
	.cv_loc	4 2 125 6
	movq	80(%rsp), %r8
	movq	40(%rsp), %r9
	leaq	112(%rsp), %rcx
	movq	%rax, %rdx
	callq	copy
	.cv_loc	4 2 126 2
	vxorps	%xmm0, %xmm0, %xmm0
	vmovaps	%xmm0, 48(%rsp)
	movq	88(%rsp), %rax
	movq	%rax, 48(%rsp)
	movq	40(%rsp), %rax
	movq	%rax, 56(%rsp)
	.cv_loc	4 2 127 5
	movq	72(%rsp), %rax
	movq	(%rax), %rax
	movq	48(%rsp), %rcx
	movq	%rcx, (%rax)
	movq	56(%rsp), %rcx
	movq	%rcx, 8(%rax)
	addq	$120, %rsp
	retq
.Ltmp9:
.Lfunc_end4:
	.seh_endproc

	.def	terminate_string;
	.scl	2;
	.type	32;
	.endef
	.globl	terminate_string
	.p2align	4, 0x90
terminate_string:
.Lfunc_begin5:
	.cv_func_id 5
	.cv_loc	5 2 131 0
.seh_proc terminate_string
	subq	$88, %rsp
	.seh_stackalloc 88
	.seh_endprologue
	movq	%rcx, 64(%rsp)
	vxorps	%xmm0, %xmm0, %xmm0
	vmovaps	%xmm0, 48(%rsp)
	movq	%r8, 56(%rsp)
	movq	%rdx, 48(%rsp)
.Ltmp10:
	.cv_loc	5 2 132 2
	vmovaps	%xmm0, 32(%rsp)
	.cv_loc	5 2 133 2
	leaq	1(%r8), %rdx
	movq	%rdx, 40(%rsp)
	leaq	72(%rsp), %rcx
	.cv_loc	5 2 134 2
	callq	mem_alloc
	movq	%rax, 32(%rsp)
	.cv_loc	5 2 135 6
	movq	48(%rsp), %r8
	movq	56(%rsp), %r9
	leaq	80(%rsp), %rcx
	movq	%rax, %rdx
	callq	copy
	.cv_loc	5 2 136 2
	movq	32(%rsp), %rax
	movq	40(%rsp), %rcx
	movb	$0, (%rax,%rcx)
	.cv_loc	5 2 137 5
	movq	64(%rsp), %rax
	movq	(%rax), %rax
	vmovaps	32(%rsp), %xmm0
	vmovups	%xmm0, (%rax)
	addq	$88, %rsp
	retq
.Ltmp11:
.Lfunc_end5:
	.seh_endproc

	.def	build_unsigned_int;
	.scl	2;
	.type	32;
	.endef
	.globl	build_unsigned_int
	.p2align	4, 0x90
build_unsigned_int:
.Lfunc_begin6:
	.cv_func_id 6
	.cv_loc	6 2 140 0
.seh_proc build_unsigned_int
	subq	$88, %rsp
	.seh_stackalloc 88
	.seh_endprologue
	movq	%rcx, 72(%rsp)
	movq	%rdx, 48(%rsp)
	movq	%r8, 56(%rsp)
	movq	%r9, 40(%rsp)
.Ltmp12:
	.cv_loc	6 2 141 2
	testq	%r8, %r8
	.cv_loc	6 2 146 1
	je	.LBB6_2
	.cv_loc	6 2 142 3
	movq	48(%rsp), %rdx
	movabsq	$-3689348814741910323, %rax
	mulxq	%rax, %rax, %rax
	.cv_loc	6 2 143 21
	shrq	$3, %rax
	.cv_loc	6 2 142 3
	leaq	(%rax,%rax), %rcx
	leaq	(%rcx,%rcx,4), %rcx
	subq	%rcx, %rdx
	orq	$48, %rdx
	movq	%rdx, 64(%rsp)
	.cv_loc	6 2 143 21
	movq	56(%rsp), %r8
	decq	%r8
	movq	40(%rsp), %r9
	leaq	80(%rsp), %rcx
	movq	%rax, %rdx
	callq	build_unsigned_int
	.cv_loc	6 2 144 4
	movq	40(%rsp), %rcx
	movb	64(%rsp), %dl
	callq	"overload[x]=.9"
.LBB6_2:
	.cv_loc	6 2 146 1
	nop
	addq	$88, %rsp
	retq
.Ltmp13:
.Lfunc_end6:
	.seh_endproc

	.def	int_to_str;
	.scl	2;
	.type	32;
	.endef
	.globl	int_to_str
	.p2align	4, 0x90
int_to_str:
.Lfunc_begin7:
	.cv_func_id 7
	.cv_loc	7 2 149 0
.seh_proc int_to_str
	subq	$88, %rsp
	.seh_stackalloc 88
	.seh_endprologue
	movq	%rcx, 72(%rsp)
	movq	%rdx, 40(%rsp)
	movq	%r8, 48(%rsp)
.Ltmp14:
	.cv_loc	7 2 150 2
	testq	%rdx, %rdx
	.cv_loc	7 2 157 2
	je	.LBB7_1
	.cv_loc	7 2 154 2
	movq	40(%rsp), %rax
	movq	%rax, 56(%rsp)
	.cv_loc	7 2 155 2
	movq	$0, 64(%rsp)
	movabsq	$7378697629483820647, %rcx
	.cv_loc	7 2 157 2
	cmpq	$0, 56(%rsp)
	je	.LBB7_6
	.p2align	4, 0x90
.LBB7_5:
	.cv_loc	7 2 158 3
	movq	%rcx, %rax
	imulq	56(%rsp)
	movq	%rdx, %rax
	shrq	$63, %rax
	sarq	$2, %rdx
	addq	%rax, %rdx
	movq	%rdx, 56(%rsp)
	.cv_loc	7 2 159 2
	incq	64(%rsp)
	.cv_loc	7 2 157 2
	cmpq	$0, 56(%rsp)
	jne	.LBB7_5
.LBB7_6:
	.cv_loc	7 2 160 2
	cmpq	$0, 40(%rsp)
	.cv_loc	7 2 166 1
	jns	.LBB7_8
	.cv_loc	7 2 161 4
	movq	48(%rsp), %rcx
	movb	$45, %dl
	callq	"overload[x]=.9"
	.cv_loc	7 2 162 3
	negq	40(%rsp)
	.cv_loc	7 2 163 3
	incq	64(%rsp)
.LBB7_8:
	.cv_loc	7 2 165 20
	movq	40(%rsp), %rdx
	movq	64(%rsp), %r8
	movq	48(%rsp), %r9
	leaq	80(%rsp), %rcx
	callq	build_unsigned_int
	jmp	.LBB7_2
.LBB7_1:
	.cv_loc	7 2 151 4
	movq	48(%rsp), %rcx
	movb	$48, %dl
	callq	"overload[x]=.9"
.LBB7_2:
	nop
	addq	$88, %rsp
	retq
.Ltmp15:
.Lfunc_end7:
	.seh_endproc

	.def	float_to_str;
	.scl	2;
	.type	32;
	.endef
	.globl	__xmm@80000000000000008000000000000000
	.section	.rdata,"dr",discard,__xmm@80000000000000008000000000000000
	.p2align	4
__xmm@80000000000000008000000000000000:
	.quad	0x8000000000000000
	.quad	0x8000000000000000
	.globl	__real@4024000000000000
	.section	.rdata,"dr",discard,__real@4024000000000000
	.p2align	3
__real@4024000000000000:
	.quad	0x4024000000000000
	.text
	.globl	float_to_str
	.p2align	4, 0x90
float_to_str:
.Lfunc_begin8:
	.cv_func_id 8
	.cv_loc	8 2 169 0
.seh_proc float_to_str
	subq	$104, %rsp
	.seh_stackalloc 104
	.seh_endprologue
	movq	%rcx, 80(%rsp)
	vmovsd	%xmm1, 40(%rsp)
	movq	%r8, 48(%rsp)
	vxorpd	%xmm0, %xmm0, %xmm0
.Ltmp16:
	.cv_loc	8 2 170 2
	vucomisd	%xmm0, %xmm1
	.cv_loc	8 2 185 2
	jae	.LBB8_3
	.cv_loc	8 2 171 4
	movq	48(%rsp), %rcx
	movb	$45, %dl
	callq	"overload[x]=.9"
	.cv_loc	8 2 172 3
	vmovsd	40(%rsp), %xmm0
	vxorpd	__xmm@80000000000000008000000000000000(%rip), %xmm0, %xmm0
	.cv_loc	8 2 175 2
	vcvttsd2si	%xmm0, %rax
	.cv_loc	8 2 176 2
	vcvtsi2sd	%rax, %xmm2, %xmm1
	.cv_loc	8 2 175 2
	movq	%rax, 72(%rsp)
	.cv_loc	8 2 176 2
	vsubsd	%xmm1, %xmm0, %xmm0
	vmovsd	%xmm0, 40(%rsp)
	.cv_loc	8 2 178 2
	testq	%rax, %rax
	.cv_loc	8 2 185 2
	je	.LBB8_2
	.cv_loc	8 2 181 17
	movq	72(%rsp), %rdx
	movq	48(%rsp), %r8
	leaq	88(%rsp), %rcx
	callq	int_to_str
	jmp	.LBB8_3
.LBB8_2:
	.cv_loc	8 2 179 4
	movq	48(%rsp), %rcx
	movb	$48, %dl
	callq	"overload[x]=.9"
.LBB8_3:
	.cv_loc	8 2 182 3
	movq	48(%rsp), %rcx
	movb	$46, %dl
	callq	"overload[x]=.9"
	.cv_loc	8 2 183 2
	movq	$0, 56(%rsp)
	vmovsd	__real@4024000000000000(%rip), %xmm0
	.p2align	4, 0x90
.LBB8_4:
	.cv_loc	8 2 185 2
	vmovsd	40(%rsp), %xmm1
	vcvttsd2si	%xmm1, %rax
	vcvtsi2sd	%rax, %xmm3, %xmm2
	vucomisd	%xmm1, %xmm2
	jne	.LBB8_5
	jnp	.LBB8_7
.LBB8_5:
	.cv_loc	8 2 186 3
	vmulsd	40(%rsp), %xmm0, %xmm1
	vmovsd	%xmm1, 40(%rsp)
	.cv_loc	8 2 187 3
	vcvttsd2si	%xmm1, %rax
	testq	%rax, %rax
	.cv_loc	8 2 188 2
	jne	.LBB8_4
	.cv_loc	8 2 187 20
	incq	56(%rsp)
	jmp	.LBB8_4
.LBB8_7:
	.cv_loc	8 2 190 2
	movq	$0, 64(%rsp)
	.p2align	4, 0x90
.LBB8_8:
	movq	64(%rsp), %rax
	cmpq	56(%rsp), %rax
	jge	.LBB8_10
	.cv_loc	8 2 191 4
	movq	48(%rsp), %rcx
	movb	$48, %dl
	callq	"overload[x]=.9"
	.cv_loc	8 2 192 2
	incq	64(%rsp)
	jmp	.LBB8_8
.LBB8_10:
	.cv_loc	8 2 194 12
	vcvttsd2si	40(%rsp), %rdx
	movq	48(%rsp), %r8
	leaq	96(%rsp), %rcx
	callq	int_to_str
	.cv_loc	8 2 195 1
	nop
	addq	$104, %rsp
	retq
.Ltmp17:
.Lfunc_end8:
	.seh_endproc

	.def	parse_format;
	.scl	2;
	.type	32;
	.endef
	.globl	parse_format
	.p2align	4, 0x90
parse_format:
.Lfunc_begin9:
	.cv_func_id 9
	.cv_loc	9 2 198 0
.seh_proc parse_format
	pushq	%rbp
	.seh_pushreg %rbp
	pushq	%r15
	.seh_pushreg %r15
	pushq	%r14
	.seh_pushreg %r14
	pushq	%rsi
	.seh_pushreg %rsi
	pushq	%rdi
	.seh_pushreg %rdi
	pushq	%rbx
	.seh_pushreg %rbx
	subq	$712, %rsp
	.seh_stackalloc 712
	leaq	128(%rsp), %rbp
	.seh_setframe %rbp, 128
	vmovaps	%xmm6, 560(%rbp)
	.seh_savexmm %xmm6, 688
	.seh_endprologue
	andq	$-256, %rsp
	movq	%rcx, 192(%rsp)
	vxorps	%xmm6, %xmm6, %xmm6
	vmovaps	%xmm6, 128(%rsp)
	movq	%r8, 136(%rsp)
	movq	%rdx, 128(%rsp)
	movq	%r9, 200(%rsp)
.Ltmp18:
	.cv_loc	9 2 199 2
	vxorps	%xmm0, %xmm0, %xmm0
	vmovaps	%ymm0, 256(%rsp)
	vmovaps	%ymm0, 288(%rsp)
	vmovaps	%ymm0, 320(%rsp)
	vmovaps	%ymm0, 352(%rsp)
	vmovaps	%ymm0, 384(%rsp)
	vmovaps	%ymm0, 416(%rsp)
	vmovaps	%ymm0, 448(%rsp)
	vmovaps	%ymm0, 480(%rsp)
	vmovups	%ymm0, 496(%rsp)
	leaq	256(%rsp), %rsi
	movq	%rsi, 208(%rsp)
	leaq	.L__unnamed_4(%rip), %rdx
	leaq	208(%rsp), %rcx
	vzeroupper
	callq	init_builder
	.cv_loc	9 2 200 2
	movq	$0, 184(%rsp)
	.cv_loc	9 2 201 2
	movq	$0, 120(%rsp)
	leaq	240(%rsp), %rdi
	leaq	.L__unnamed_5(%rip), %r14
	leaq	248(%rsp), %r15
	jmp	.LBB9_1
	.p2align	4, 0x90
.LBB9_7:
	.cv_loc	9 2 217 2
	movq	128(%rsp), %rcx
	movq	136(%rsp), %rdx
	movq	120(%rsp), %r8
	callq	"overload[]"
	movq	%rsi, %rcx
	movl	%eax, %edx
	callq	"overload[x]=.9"
	incq	120(%rsp)
.LBB9_1:
	.cv_loc	9 2 201 2
	movq	120(%rsp), %rax
	cmpq	136(%rsp), %rax
	jge	.LBB9_8
	.cv_loc	9 2 202 3
	movq	128(%rsp), %rcx
	movq	136(%rsp), %rdx
	movq	120(%rsp), %r8
	callq	"overload[]"
	cmpb	$37, %al
	.cv_loc	9 2 217 2
	jne	.LBB9_7
	.cv_loc	9 2 203 4
	movq	184(%rsp), %rax
	movq	200(%rsp), %rcx
	movq	%rax, %rdx
	shlq	$4, %rdx
	movq	(%rcx,%rdx), %rbx
	movq	8(%rcx,%rdx), %rcx
	vmovaps	%xmm6, 160(%rsp)
	movq	%rcx, 168(%rsp)
	movq	%rbx, 160(%rsp)
	.cv_loc	9 2 204 4
	incq	%rax
	movq	%rax, 184(%rsp)
	.cv_loc	9 2 205 4
	movl	(%rbx), %eax
	movl	%eax, 156(%rsp)
	.cv_loc	9 2 206 4
	cmpl	$3, %eax
	.cv_loc	9 2 214 3
	jne	.LBB9_5
	.cv_loc	9 2 207 15
	movq	168(%rsp), %rax
	movq	(%rax), %rdx
	movq	%rdi, %rcx
	movq	%rsi, %r8
	callq	int_to_str
	.cv_loc	9 2 217 2
	incq	120(%rsp)
	jmp	.LBB9_1
	.p2align	4, 0x90
.LBB9_5:
	.cv_loc	9 2 208 11
	cmpl	$4, 156(%rsp)
	.cv_loc	9 2 208 6
	jne	.LBB9_7
	.cv_loc	9 2 209 11
	movq	168(%rsp), %rax
	vmovq	(%rax), %xmm1
	movq	%r14, %rcx
	vmovq	%xmm1, %rdx
	callq	printf
	.cv_loc	9 2 210 17
	movq	168(%rsp), %rax
	vmovsd	(%rax), %xmm1
	movq	%r15, %rcx
	movq	%rsi, %r8
	callq	float_to_str
	.cv_loc	9 2 217 2
	incq	120(%rsp)
	jmp	.LBB9_1
.LBB9_8:
	.cv_loc	9 2 218 2
	leaq	256(%rsp), %rsi
	movq	%rsi, %rcx
	movb	$10, %dl
	callq	"overload[x]=.9"
	.cv_loc	9 2 219 2
	vxorps	%xmm0, %xmm0, %xmm0
	vmovaps	%xmm0, 224(%rsp)
	leaq	224(%rsp), %rax
	movq	%rax, 216(%rsp)
	leaq	216(%rsp), %rcx
	movq	%rsi, %rdx
	callq	builder_to_string
	.cv_loc	9 2 220 5
	movq	192(%rsp), %rax
	movq	(%rax), %rax
	vmovaps	224(%rsp), %xmm0
	vmovups	%xmm0, (%rax)
	vmovaps	560(%rbp), %xmm6
	leaq	584(%rbp), %rsp
	popq	%rbx
	popq	%rdi
	popq	%rsi
	popq	%r14
	popq	%r15
	popq	%rbp
	retq
.Ltmp19:
.Lfunc_end9:
	.seh_endproc

	.def	"print!@* u8!@-";
	.scl	2;
	.type	32;
	.endef
	.globl	"print!@* u8!@-"
	.p2align	4, 0x90
"print!@* u8!@-":
.Lfunc_begin10:
	.cv_func_id 10
	.cv_loc	10 2 224 0
.seh_proc "print!@* u8!@-"
	subq	$152, %rsp
	.seh_stackalloc 152
	vmovaps	%xmm6, 128(%rsp)
	.seh_savexmm %xmm6, 128
	.seh_endprologue
	movq	%r8, 176(%rsp)
	movq	%r9, 184(%rsp)
	movq	%rcx, 80(%rsp)
	movq	%rdx, 88(%rsp)
.Ltmp20:
	.cv_loc	10 2 225 2
	vxorps	%xmm6, %xmm6, %xmm6
	vmovaps	%xmm6, 32(%rsp)
	leaq	32(%rsp), %rax
	movq	%rax, 64(%rsp)
	leaq	64(%rsp), %rcx
	callq	to_string
	leaq	176(%rsp), %r9
	.cv_loc	10 2 227 15
	movq	%r9, 96(%rsp)
	.cv_loc	10 2 228 2
	vmovaps	%xmm6, 48(%rsp)
	leaq	48(%rsp), %rax
	movq	%rax, 72(%rsp)
	movq	32(%rsp), %rdx
	movq	40(%rsp), %r8
	leaq	72(%rsp), %rcx
	callq	parse_format
	leaq	104(%rsp), %rcx
	.cv_loc	10 2 230 2
	callq	get_stdout
	movq	%rax, 112(%rsp)
	.cv_loc	10 2 231 12
	movq	48(%rsp), %r8
	movl	56(%rsp), %r9d
	leaq	120(%rsp), %rcx
	movq	%rax, %rdx
	callq	write_file
	vmovaps	128(%rsp), %xmm6
	.cv_loc	10 2 232 1
	addq	$152, %rsp
	retq
.Ltmp21:
.Lfunc_end10:
	.seh_endproc

	.def	"print!@string!@-";
	.scl	2;
	.type	32;
	.endef
	.globl	"print!@string!@-"
	.p2align	4, 0x90
"print!@string!@-":
.Lfunc_begin11:
	.cv_func_id 11
	.cv_loc	11 2 235 0
.seh_proc "print!@string!@-"
	subq	$120, %rsp
	.seh_stackalloc 120
	.seh_endprologue
	movq	%r9, 152(%rsp)
	movq	%rcx, 80(%rsp)
	vxorps	%xmm0, %xmm0, %xmm0
	vmovaps	%xmm0, 64(%rsp)
	movq	%r8, 72(%rsp)
	movq	%rdx, 64(%rsp)
	leaq	152(%rsp), %r9
.Ltmp22:
	.cv_loc	11 2 237 15
	movq	%r9, 88(%rsp)
	.cv_loc	11 2 238 2
	vmovaps	%xmm0, 32(%rsp)
	leaq	32(%rsp), %rax
	movq	%rax, 56(%rsp)
	leaq	56(%rsp), %rcx
	callq	parse_format
	leaq	96(%rsp), %rcx
	.cv_loc	11 2 240 2
	callq	get_stdout
	movq	%rax, 104(%rsp)
	.cv_loc	11 2 241 12
	movq	32(%rsp), %r8
	movl	40(%rsp), %r9d
	leaq	112(%rsp), %rcx
	movq	%rax, %rdx
	callq	write_file
	.cv_loc	11 2 242 1
	nop
	addq	$120, %rsp
	retq
.Ltmp23:
.Lfunc_end11:
	.seh_endproc

	.def	copy;
	.scl	2;
	.type	32;
	.endef
	.globl	copy
	.p2align	4, 0x90
copy:
.Lfunc_begin12:
	.cv_func_id 12
	.cv_loc	12 2 246 0
.seh_proc copy
	subq	$56, %rsp
	.seh_stackalloc 56
	.seh_endprologue
	movq	%rcx, 32(%rsp)
	movq	%rdx, 40(%rsp)
	movq	%r8, 48(%rsp)
	movq	%r9, 8(%rsp)
.Ltmp24:
	.cv_loc	12 2 247 2
	movq	%rdx, 16(%rsp)
	.cv_loc	12 2 248 2
	movq	%r8, 24(%rsp)
	.cv_loc	12 2 249 2
	movq	$0, (%rsp)
	.p2align	4, 0x90
.LBB12_1:
	movq	(%rsp), %rax
	cmpq	8(%rsp), %rax
	jge	.LBB12_3
	.cv_loc	12 2 251 3
	movq	(%rsp), %rax
	movq	24(%rsp), %rcx
	movzbl	(%rcx,%rax), %ecx
	movq	16(%rsp), %rdx
	movb	%cl, (%rdx,%rax)
	.cv_loc	12 2 252 2
	incq	(%rsp)
	jmp	.LBB12_1
.LBB12_3:
	.cv_loc	12 2 253 1
	addq	$56, %rsp
	retq
.Ltmp25:
.Lfunc_end12:
	.seh_endproc

	.def	len;
	.scl	2;
	.type	32;
	.endef
	.globl	len
	.p2align	4, 0x90
len:
.Lfunc_begin13:
	.cv_func_id 13
	.cv_loc	13 2 256 0
.seh_proc len
	subq	$24, %rsp
	.seh_stackalloc 24
	.seh_endprologue
	movq	%rcx, 16(%rsp)
	movq	%rdx, 8(%rsp)
.Ltmp26:
	.cv_loc	13 2 257 2
	movq	$0, (%rsp)
	.p2align	4, 0x90
.LBB13_1:
	.cv_loc	13 2 258 2
	movq	(%rsp), %rax
	movq	8(%rsp), %rcx
	cmpb	$0, (%rcx,%rax)
	je	.LBB13_3
	.cv_loc	13 2 258 47
	incq	(%rsp)
	jmp	.LBB13_1
.LBB13_3:
	.cv_loc	13 2 259 5
	movq	(%rsp), %rax
	addq	$24, %rsp
	retq
.Ltmp27:
.Lfunc_end13:
	.seh_endproc

	.def	open_file;
	.scl	2;
	.type	32;
	.endef
	.globl	open_file
	.p2align	4, 0x90
open_file:
.Lfunc_begin14:
	.cv_func_id 14
	.cv_file	3 "E:\\C_Projects\\Apocalypse\\Standard\\Windows.apoc"
	.cv_loc	14 3 27 0
.seh_proc open_file
	subq	$104, %rsp
	.seh_stackalloc 104
	.seh_endprologue
	movq	%rcx, 88(%rsp)
	movq	%rdx, 72(%rsp)
	movq	%r8, 80(%rsp)
.Ltmp28:
	.cv_loc	14 3 28 2
	movq	$0, 64(%rsp)
	.cv_loc	14 3 36 1
	testb	$1, %r8b
	je	.LBB14_4
	.cv_loc	14 3 29 41
	orl	$1179785, 64(%rsp)
	.cv_loc	14 3 36 1
	testb	$1, 80(%rsp)
	je	.LBB14_4
	.cv_loc	14 3 30 41
	orl	$1179926, 64(%rsp)
	movb	$1, %al
	.cv_loc	14 3 36 1
	testb	%al, %al
	jne	.LBB14_4
	.cv_loc	14 3 31 41
	orq	$1179808, 64(%rsp)
.LBB14_4:
	.cv_loc	14 3 32 2
	movq	72(%rsp), %rcx
	movq	64(%rsp), %rdx
	movq	$0, 48(%rsp)
	movq	$32, 40(%rsp)
	movq	$4, 32(%rsp)
	xorl	%r8d, %r8d
	xorl	%r9d, %r9d
	callq	CreateFileA
	movq	%rax, 96(%rsp)
	.cv_loc	14 3 35 5
	addq	$104, %rsp
	retq
.Ltmp29:
.Lfunc_end14:
	.seh_endproc

	.def	write_file;
	.scl	2;
	.type	32;
	.endef
	.globl	write_file
	.p2align	4, 0x90
write_file:
.Lfunc_begin15:
	.cv_func_id 15
	.cv_loc	15 3 39 0
.seh_proc write_file
	subq	$88, %rsp
	.seh_stackalloc 88
	.seh_endprologue
	movl	%r9d, %eax
	movq	%rcx, 64(%rsp)
	movq	%rdx, 72(%rsp)
	movq	%r8, 80(%rsp)
	movl	%r9d, 60(%rsp)
.Ltmp30:
	.cv_loc	15 3 40 2
	movq	$0, 56(%rsp)
	.cv_loc	15 3 41 11
	movq	$0, 32(%rsp)
	leaq	56(%rsp), %r9
	movq	%rdx, %rcx
	movq	%r8, %rdx
	movl	%eax, %r8d
	callq	WriteFile
	.cv_loc	15 3 42 2
	movl	56(%rsp), %eax
	cmpl	60(%rsp), %eax
	sete	%al
	sete	55(%rsp)
	.cv_loc	15 3 43 5
	addq	$88, %rsp
	retq
.Ltmp31:
.Lfunc_end15:
	.seh_endproc

	.def	get_stdout;
	.scl	2;
	.type	32;
	.endef
	.globl	get_stdout
	.p2align	4, 0x90
get_stdout:
.Lfunc_begin16:
	.cv_func_id 16
	.cv_loc	16 3 47 0
.seh_proc get_stdout
	subq	$40, %rsp
	.seh_stackalloc 40
	.seh_endprologue
	movq	%rcx, 32(%rsp)
.Ltmp32:
	.cv_loc	16 3 48 5
	movl	$-11, %ecx
	callq	GetStdHandle
	nop
	addq	$40, %rsp
	retq
.Ltmp33:
.Lfunc_end16:
	.seh_endproc

	.def	mem_alloc;
	.scl	2;
	.type	32;
	.endef
	.globl	mem_alloc
	.p2align	4, 0x90
mem_alloc:
.Lfunc_begin17:
	.cv_func_id 17
	.cv_file	4 "E:\\C_Projects\\Apocalypse\\Standard\\C_Standard.apoc"
	.cv_loc	17 4 13 0
.seh_proc mem_alloc
	subq	$56, %rsp
	.seh_stackalloc 56
	.seh_endprologue
	movq	%rcx, 48(%rsp)
	movq	%rdx, 32(%rsp)
.Ltmp34:
	.cv_loc	17 4 14 2
	movq	%rdx, %rcx
	callq	malloc
	movq	%rax, 40(%rsp)
	.cv_loc	17 4 15 8
	movq	32(%rsp), %r8
	movq	%rax, %rcx
	xorl	%edx, %edx
	callq	memset
	.cv_loc	17 4 16 5
	movq	40(%rsp), %rax
	addq	$56, %rsp
	retq
.Ltmp35:
.Lfunc_end17:
	.seh_endproc

	.def	"overload[]";
	.scl	2;
	.type	32;
	.endef
	.globl	"overload[]"
	.p2align	4, 0x90
"overload[]":
.Lfunc_begin18:
	.cv_func_id 18
	.cv_loc	18 2 60 0
.seh_proc "overload[]"
	subq	$24, %rsp
	.seh_stackalloc 24
	.seh_endprologue
	vxorps	%xmm0, %xmm0, %xmm0
	vmovaps	%xmm0, (%rsp)
	movq	%rdx, 8(%rsp)
	movq	%rcx, (%rsp)
	movq	%r8, 16(%rsp)
.Ltmp36:
	.cv_loc	18 2 61 5
	movb	(%rcx,%r8), %al
	addq	$24, %rsp
	retq
.Ltmp37:
.Lfunc_end18:
	.seh_endproc

	.def	"overload+Œw­”î8";
	.scl	2;
	.type	32;
	.endef
	.globl	"overload+Œw­”î8"
	.p2align	4, 0x90
"overload+Œw­”î8":
.Lfunc_begin19:
	.cv_func_id 19
	.cv_loc	19 2 65 0
.seh_proc "overload+Œw­”î8"
	subq	$120, %rsp
	.seh_stackalloc 120
	.seh_endprologue
	vxorps	%xmm0, %xmm0, %xmm0
	vmovaps	%xmm0, 32(%rsp)
	movq	%rdx, 40(%rsp)
	movq	%rcx, 32(%rsp)
	movq	%r8, 72(%rsp)
.Ltmp38:
	.cv_loc	19 2 66 2
	vmovaps	%xmm0, 48(%rsp)
	leaq	88(%rsp), %rcx
	.cv_loc	19 2 67 2
	movq	%r8, %rdx
	callq	len
	movq	%rax, 80(%rsp)
	.cv_loc	19 2 68 2
	addq	40(%rsp), %rax
	movq	%rax, 56(%rsp)
	leaq	96(%rsp), %rcx
	.cv_loc	19 2 69 2
	movq	%rax, %rdx
	callq	mem_alloc
	movq	%rax, 48(%rsp)
	.cv_loc	19 2 70 6
	movq	32(%rsp), %r8
	movq	40(%rsp), %r9
	leaq	104(%rsp), %rcx
	movq	%rax, %rdx
	callq	copy
	.cv_loc	19 2 71 6
	movq	48(%rsp), %rdx
	addq	40(%rsp), %rdx
	movq	72(%rsp), %r8
	movq	80(%rsp), %r9
	leaq	112(%rsp), %rcx
	callq	copy
	.cv_loc	19 2 72 5
	movq	48(%rsp), %rax
	movq	56(%rsp), %rdx
	addq	$120, %rsp
	retq
.Ltmp39:
.Lfunc_end19:
	.seh_endproc

	.def	"overload[x]=";
	.scl	2;
	.type	32;
	.endef
	.globl	"overload[x]="
	.p2align	4, 0x90
"overload[x]=":
.Lfunc_begin20:
	.cv_func_id 20
	.cv_loc	20 2 76 0
.seh_proc "overload[x]="
	pushq	%rsi
	.seh_pushreg %rsi
	subq	$112, %rsp
	.seh_stackalloc 112
	.seh_endprologue
	movq	%rcx, 64(%rsp)
	movq	%rdx, 80(%rsp)
	leaq	96(%rsp), %rcx
.Ltmp40:
	.cv_loc	20 2 77 2
	callq	len
	movq	%rax, 72(%rsp)
	.cv_loc	20 2 78 2
	movq	64(%rsp), %rcx
	movq	256(%rcx), %rcx
	movq	%rax, %rdx
	orq	%rcx, %rdx
	shrq	$32, %rdx
	testq	%rdx, %rdx
	je	.LBB20_1
	je	.LBB20_1
	cqto
	idivq	%rcx
	jmp	.LBB20_4
.LBB20_1:
	xorl	%edx, %edx
	divl	%ecx
.LBB20_4:
	movq	%rax, 88(%rsp)
	.cv_loc	20 2 79 2
	movq	64(%rsp), %rax
	movq	%rax, 40(%rsp)
	.cv_loc	20 2 80 2
	movq	$0, 48(%rsp)
	leaq	104(%rsp), %rsi
	jmp	.LBB20_5
	.p2align	4, 0x90
.LBB20_8:
	.cv_loc	20 2 83 7
	movq	40(%rsp), %rdx
	addq	256(%rdx), %rdx
	movq	48(%rsp), %r8
	shlq	$8, %r8
	addq	80(%rsp), %r8
	movq	56(%rsp), %r9
	movq	%rsi, %rcx
	callq	copy
	.cv_loc	20 2 84 3
	movq	40(%rsp), %rax
	movq	56(%rsp), %rcx
	addq	%rcx, 256(%rax)
	.cv_loc	20 2 85 3
	addq	$-256, 72(%rsp)
	.cv_loc	20 2 86 3
	movq	40(%rsp), %rax
	movq	264(%rax), %rax
	movq	%rax, 40(%rsp)
	.cv_loc	20 2 87 2
	incq	48(%rsp)
.LBB20_5:
	.cv_loc	20 2 80 2
	movq	48(%rsp), %rax
	decq	%rax
	cmpq	88(%rsp), %rax
	jge	.LBB20_9
	.cv_loc	20 2 81 3
	movq	72(%rsp), %rax
	movq	%rax, 56(%rsp)
	.cv_loc	20 2 82 3
	cmpq	$256, %rax
	.cv_loc	20 2 87 2
	jle	.LBB20_8
	.cv_loc	20 2 82 37
	movq	$256, 56(%rsp)
	jmp	.LBB20_8
.LBB20_9:
	.cv_loc	20 2 89 1
	addq	$112, %rsp
	popq	%rsi
	retq
.Ltmp41:
.Lfunc_end20:
	.seh_endproc

	.def	"overload[x]=.9";
	.scl	2;
	.type	32;
	.endef
	.globl	"overload[x]=.9"
	.p2align	4, 0x90
"overload[x]=.9":
.Lfunc_begin21:
	.cv_func_id 21
	.cv_loc	21 2 92 0
.seh_proc "overload[x]=.9"
	pushq	%rsi
	.seh_pushreg %rsi
	subq	$64, %rsp
	.seh_stackalloc 64
	.seh_endprologue
	movq	%rcx, 48(%rsp)
	movb	%dl, 39(%rsp)
.Ltmp42:
	.cv_loc	21 2 93 2
	movq	%rcx, 40(%rsp)
	leaq	56(%rsp), %rsi
	.p2align	4, 0x90
.LBB21_1:
	.cv_loc	21 2 94 2
	movq	40(%rsp), %rax
	testq	%rax, %rax
	je	.LBB21_6
	cmpq	$256, 256(%rax)
	jne	.LBB21_6
	.cv_loc	21 2 95 3
	movq	40(%rsp), %rax
	cmpq	$0, 264(%rax)
	.cv_loc	21 2 100 2
	jne	.LBB21_1
	.cv_loc	21 2 96 4
	movl	$272, %edx
	movq	%rsi, %rcx
	callq	mem_alloc
	movq	40(%rsp), %rcx
	movq	%rax, 264(%rcx)
	.cv_loc	21 2 98 3
	movq	40(%rsp), %rax
	cmpq	$256, 256(%rax)
	.cv_loc	21 2 100 2
	jne	.LBB21_1
	.cv_loc	21 2 99 4
	movq	40(%rsp), %rax
	movq	264(%rax), %rax
	movq	%rax, 40(%rsp)
	jmp	.LBB21_1
.LBB21_6:
	.cv_loc	21 2 101 2
	movb	39(%rsp), %al
	movq	40(%rsp), %rcx
	movq	256(%rcx), %rdx
	movb	%al, (%rcx,%rdx)
	.cv_loc	21 2 102 2
	movq	40(%rsp), %rax
	incq	256(%rax)
	.cv_loc	21 2 103 1
	addq	$64, %rsp
	popq	%rsi
	retq
.Ltmp43:
.Lfunc_end21:
	.seh_endproc

	.def	overload;
	.scl	2;
	.type	32;
	.endef
	.globl	overload
	.p2align	4, 0x90
overload:
.Lfunc_begin22:
	.cv_func_id 22
	.cv_loc	22 2 106 0
.seh_proc overload
	subq	$104, %rsp
	.seh_stackalloc 104
	.seh_endprologue
	vxorps	%xmm0, %xmm0, %xmm0
	vmovaps	%xmm0, 48(%rsp)
	movq	%rdx, 56(%rsp)
	movq	%rcx, 48(%rsp)
	movq	%r8, 80(%rsp)
.Ltmp44:
	.cv_loc	22 2 107 2
	vmovaps	%xmm0, 64(%rsp)
	movq	%r8, 64(%rsp)
	leaq	88(%rsp), %rcx
	movq	%r8, %rdx
	callq	len
	movq	%rax, 72(%rsp)
	.cv_loc	22 2 108 5
	movq	48(%rsp), %rdx
	movq	56(%rsp), %r8
	movq	64(%rsp), %r9
	movq	%rax, 32(%rsp)
	leaq	96(%rsp), %rcx
	callq	compare
	nop
	addq	$104, %rsp
	retq
.Ltmp45:
.Lfunc_end22:
	.seh_endproc

	.section	.rdata,"dr"
	.globl	global_var
	.p2align	3
global_var:
	.quad	256

	.globl	global_var.1
	.p2align	3
global_var.1:
	.quad	65536

	.globl	global_var.2
	.p2align	3
global_var.2:
	.quad	131072

	.globl	global_var.3
	.p2align	3
global_var.3:
	.quad	262144

	.globl	global_var.4
	.p2align	3
global_var.4:
	.quad	524288

	.globl	global_var.5
	.p2align	3
global_var.5:
	.quad	1048576

	.globl	global_var.6
global_var.6:
	.byte	1

	.globl	global_var.7
global_var.7:
	.byte	0

	.globl	global_var.8
	.p2align	3
global_var.8:
	.quad	0

.L__unnamed_1:
	.asciz	"my big string"

.L__unnamed_2:
	.asciz	" more text %"

.L__unnamed_3:
	.asciz	"Number: %"

.L__unnamed_4:
	.zero	1

.L__unnamed_5:
	.asciz	"int: %f\n"
