	.text
	.def	@feat.00;
	.scl	3;
	.type	0;
	.endef
	.globl	@feat.00
.set @feat.00, 0
	.file	"quick_test.apoc"
	.def	give_num;
	.scl	2;
	.type	32;
	.endef
	.globl	give_num
	.p2align	4, 0x90
give_num:
.Lfunc_begin0:
	.cv_func_id 0
	.cv_file	1 "E:\\C_Projects\\Apocalypse\\quick_test_2.apoc"
	.cv_loc	0 1 4 5
	movl	$12, %eax
	retq
.Ltmp0:
.Lfunc_end0:

	.def	main;
	.scl	2;
	.type	32;
	.endef
	.globl	main
	.p2align	4, 0x90
main:
.Lfunc_begin1:
	.cv_func_id 1
	.cv_file	2 "E:\\C_Projects\\Apocalypse\\Test.apoc"
	.cv_loc	1 2 7 0
	subq	$40, %rsp
.Ltmp1:
	.cv_loc	1 2 15 13
	leaq	.L__unnamed_1(%rip), %rcx
	callq	puts
	.cv_loc	1 2 14 13
	leaq	.L__unnamed_2(%rip), %rcx
	callq	puts
	.cv_loc	1 2 12 12
	leaq	.L__unnamed_3(%rip), %rcx
	callq	puts
	.cv_loc	1 2 9 7
	leaq	.L__unnamed_4(%rip), %rcx
	callq	puts
	.cv_loc	1 2 16 6
	xorl	%eax, %eax
	addq	$40, %rsp
	retq
.Ltmp2:
.Lfunc_end1:

	.def	mem_alloc;
	.scl	2;
	.type	32;
	.endef
	.globl	mem_alloc
	.p2align	4, 0x90
mem_alloc:
.Lfunc_begin2:
	.cv_func_id 2
	.cv_file	3 "E:\\C_Projects\\Apocalypse\\Standard\\C_Standard.apoc"
	.cv_loc	2 3 13 0
	pushq	%rsi
	pushq	%rdi
	subq	$40, %rsp
	movq	%rdx, %rsi
.Ltmp3:
	.cv_loc	2 3 14 2
	movq	%rdx, %rcx
	callq	malloc
	movq	%rax, %rdi
.Ltmp4:
	.cv_loc	2 3 15 8
	movq	%rax, %rcx
	xorl	%edx, %edx
	movq	%rsi, %r8
	callq	memset
	.cv_loc	2 3 16 5
	movq	%rdi, %rax
	addq	$40, %rsp
	popq	%rdi
	popq	%rsi
	retq
.Ltmp5:
.Lfunc_end2:

	.def	builder_to_string;
	.scl	2;
	.type	32;
	.endef
	.globl	builder_to_string
	.p2align	4, 0x90
builder_to_string:
.Lfunc_begin3:
	.cv_func_id 3
	.cv_file	4 "E:\\C_Projects\\Apocalypse\\Standard\\String.apoc"
	.cv_loc	3 4 18 0
	pushq	%r15
	pushq	%r14
	pushq	%r13
	pushq	%r12
	pushq	%rsi
	pushq	%rdi
	pushq	%rbx
	subq	$32, %rsp
.Ltmp6:
	movq	%rdx, %rbx
	movq	%rcx, %r14
.Ltmp7:
	.cv_loc	3 4 22 2
	movq	264(%rdx), %rax
	xorl	%r12d, %r12d
	testq	%rax, %rax
	je	.LBB3_3
.Ltmp8:
	movq	%rbx, %rcx
.Ltmp9:
	.p2align	4, 0x90
.LBB3_2:
	.cv_loc	3 4 23 3
	addq	256(%rcx), %r12
.Ltmp10:
	movq	%rax, %rbx
	.cv_loc	3 4 22 2
	movq	264(%rax), %rax
.Ltmp11:
	movq	%rbx, %rcx
	testq	%rax, %rax
	jne	.LBB3_2
.Ltmp12:
.LBB3_3:
	.cv_loc	3 4 26 2
	addq	256(%rbx), %r12
.Ltmp13:
	.cv_inline_site_id 4 within 3 inlined_at 4 27 2
	.cv_loc	4 3 14 2
	movq	%r12, %rcx
	callq	malloc
	movq	%rax, %r15
.Ltmp14:
	xorl	%r13d, %r13d
	.cv_loc	4 3 15 8
	movq	%rax, %rcx
	xorl	%edx, %edx
	movq	%r12, %r8
	callq	memset
.Ltmp15:
	.cv_loc	3 4 31 2
	cmpq	$0, 264(%rbx)
	je	.LBB3_15
.Ltmp16:
	leaq	264(%rbx), %r8
	xorl	%r13d, %r13d
	movq	%r15, %rax
	jmp	.LBB3_5
.Ltmp17:
	.p2align	4, 0x90
.LBB3_13:
	.cv_loc	3 4 33 3
	movq	(%r8), %rbx
.Ltmp18:
	.cv_loc	3 4 34 3
	incq	%r13
.Ltmp19:
	.cv_loc	3 4 31 2
	leaq	264(%rbx), %r8
	addq	$256, %rax
	cmpq	$0, 264(%rbx)
	je	.LBB3_14
.Ltmp20:
.LBB3_5:
	.cv_loc	3 4 32 7
	movq	256(%rbx), %rdi
.Ltmp21:
	.cv_inline_site_id 5 within 3 inlined_at 4 32 7
	.cv_loc	5 4 249 2
	testq	%rdi, %rdi
	jle	.LBB3_13
.Ltmp22:
	cmpq	$4, %rdi
	jb	.LBB3_7
.Ltmp23:
	movq	%r13, %rcx
	shlq	$8, %rcx
	addq	%r15, %rcx
.Ltmp24:
	subq	%rbx, %rcx
	movl	$0, %edx
	cmpq	$4, %rcx
	jb	.LBB3_12
.Ltmp25:
	movq	%rdi, %rdx
	andq	$-4, %rdx
	xorl	%ecx, %ecx
.Ltmp26:
	.p2align	4, 0x90
.LBB3_10:
	.cv_loc	5 4 251 3
	movl	(%rbx,%rcx), %esi
	movl	%esi, (%rax,%rcx)
	.cv_loc	5 4 252 2
	addq	$4, %rcx
	cmpq	%rcx, %rdx
	jne	.LBB3_10
.Ltmp27:
	.cv_loc	5 4 249 2
	cmpq	%rdx, %rdi
	jne	.LBB3_12
	jmp	.LBB3_13
.Ltmp28:
.LBB3_7:
	xorl	%edx, %edx
.Ltmp29:
	.p2align	4, 0x90
.LBB3_12:
	.cv_loc	5 4 251 3
	movzbl	(%rbx,%rdx), %ecx
	movb	%cl, (%rax,%rdx)
	.cv_loc	5 4 252 2
	incq	%rdx
.Ltmp30:
	.cv_loc	5 4 249 2
	cmpq	%rdi, %rdx
	jl	.LBB3_12
	jmp	.LBB3_13
.Ltmp31:
.LBB3_14:
	.cv_loc	3 4 36 6
	shlq	$8, %r13
.Ltmp32:
.LBB3_15:
	movq	256(%rbx), %r8
.Ltmp33:
	.cv_inline_site_id 6 within 3 inlined_at 4 36 6
	.cv_loc	6 4 249 2
	testq	%r8, %r8
	jle	.LBB3_24
.Ltmp34:
	movq	%r15, %rcx
	addq	%r13, %rcx
.Ltmp35:
	cmpq	$8, %r8
	jae	.LBB3_18
.Ltmp36:
	xorl	%edx, %edx
	jmp	.LBB3_23
.Ltmp37:
.LBB3_18:
	movq	%rcx, %rdx
	subq	%rbx, %rdx
	cmpq	$4, %rdx
	jae	.LBB3_20
.Ltmp38:
	xorl	%edx, %edx
	jmp	.LBB3_23
.Ltmp39:
.LBB3_20:
	movq	%r8, %rdx
	andq	$-4, %rdx
	xorl	%edi, %edi
.Ltmp40:
	.p2align	4, 0x90
.LBB3_21:
	.cv_loc	6 4 251 3
	movl	(%rbx,%rdi), %esi
	movl	%esi, (%rcx,%rdi)
	.cv_loc	6 4 252 2
	addq	$4, %rdi
	cmpq	%rdi, %rdx
	jne	.LBB3_21
.Ltmp41:
	.cv_loc	6 4 249 2
	cmpq	%rdx, %r8
	je	.LBB3_24
.Ltmp42:
	.p2align	4, 0x90
.LBB3_23:
	.cv_loc	6 4 251 3
	movzbl	(%rbx,%rdx), %eax
	movb	%al, (%rcx,%rdx)
	.cv_loc	6 4 252 2
	incq	%rdx
.Ltmp43:
	.cv_loc	6 4 249 2
	cmpq	%r8, %rdx
	jl	.LBB3_23
.Ltmp44:
.LBB3_24:
	.cv_loc	3 4 38 5
	movq	(%r14), %rax
	movq	%r15, (%rax)
	movq	%r12, 8(%rax)
	addq	$32, %rsp
	popq	%rbx
.Ltmp45:
	popq	%rdi
	popq	%rsi
	popq	%r12
.Ltmp46:
	popq	%r13
	popq	%r14
	popq	%r15
.Ltmp47:
	retq
.Ltmp48:
.Lfunc_end3:

	.def	init_builder;
	.scl	2;
	.type	32;
	.endef
	.globl	init_builder
	.p2align	4, 0x90
init_builder:
.Lfunc_begin4:
	.cv_func_id 7
	.cv_loc	7 4 42 0
	pushq	%rbp
	pushq	%r14
	pushq	%rsi
	pushq	%rdi
	pushq	%rbx
	subq	$720, %rsp
	leaq	128(%rsp), %rbp
	vmovaps	%xmm8, 576(%rbp)
	vmovaps	%xmm7, 560(%rbp)
	vmovaps	%xmm6, 544(%rbp)
	andq	$-256, %rsp
	movq	%rcx, %r14
.Ltmp49:
	.cv_loc	7 4 43 2
	vxorps	%xmm0, %xmm0, %xmm0
	vmovups	%ymm0, 496(%rsp)
	vmovaps	%ymm0, 480(%rsp)
	vmovaps	%ymm0, 448(%rsp)
	vmovaps	%ymm0, 416(%rsp)
	vmovaps	%ymm0, 384(%rsp)
	vmovaps	%ymm0, 352(%rsp)
	vmovaps	%ymm0, 320(%rsp)
	vmovaps	%ymm0, 288(%rsp)
	vmovaps	%ymm0, 256(%rsp)
.Ltmp50:
	.cv_loc	7 4 46 2
	movb	(%rdx), %cl
	testb	%cl, %cl
	je	.LBB4_5
.Ltmp51:
	movq	%rdx, %rdi
	leaq	256(%rsp), %rbx
	xorl	%eax, %eax
	xorl	%esi, %esi
	jmp	.LBB4_2
.Ltmp52:
	.p2align	4, 0x90
.LBB4_4:
	movq	%rsi, %rcx
	shlq	$8, %rcx
	addq	%rax, %rcx
	incq	%rcx
.Ltmp53:
	.cv_loc	7 4 55 2
	incq	%rax
.Ltmp54:
	.cv_loc	7 4 46 2
	movzbl	(%rdi,%rcx), %ecx
	testb	%cl, %cl
	je	.LBB4_5
.Ltmp55:
.LBB4_2:
	.cv_loc	7 4 47 3
	movb	%cl, (%rbx,%rax)
	.cv_loc	7 4 48 3
	incq	256(%rbx)
	.cv_loc	7 4 49 3
	cmpq	$256, %rax
	.cv_loc	7 4 55 2
	jne	.LBB4_4
.Ltmp56:
	.cv_loc	7 4 51 4
	incq	%rsi
.Ltmp57:
	.cv_inline_site_id 8 within 7 inlined_at 4 52 4
	.cv_loc	8 3 14 2
	movl	$272, %ecx
	vzeroupper
	callq	malloc
.Ltmp58:
	.cv_loc	7 4 43 2
	vxorps	%xmm0, %xmm0, %xmm0
.Ltmp59:
	.cv_loc	8 3 15 8
	vmovups	%ymm0, (%rax)
	vmovups	%ymm0, 32(%rax)
	vmovups	%ymm0, 64(%rax)
	vmovups	%ymm0, 96(%rax)
	vmovups	%ymm0, 128(%rax)
	vmovups	%ymm0, 160(%rax)
	vmovups	%ymm0, 192(%rax)
	vmovups	%ymm0, 224(%rax)
	vmovups	%ymm0, 240(%rax)
.Ltmp60:
	.cv_loc	7 4 52 4
	movq	%rax, 264(%rbx)
	movq	%rax, %rbx
.Ltmp61:
	xorl	%eax, %eax
	jmp	.LBB4_4
.Ltmp62:
.LBB4_5:
	.cv_loc	7 4 56 5
	movq	(%r14), %rax
	vmovaps	256(%rsp), %ymm0
	vmovaps	288(%rsp), %ymm1
	vmovaps	320(%rsp), %ymm2
	vmovaps	352(%rsp), %ymm3
	vmovaps	384(%rsp), %ymm4
	vmovaps	416(%rsp), %ymm5
	vmovaps	448(%rsp), %ymm6
	vmovaps	480(%rsp), %ymm7
	vmovaps	512(%rsp), %xmm8
	vmovaps	%ymm0, (%rax)
	vmovaps	%ymm1, 32(%rax)
	vmovaps	%ymm2, 64(%rax)
	vmovaps	%ymm3, 96(%rax)
	vmovaps	%ymm4, 128(%rax)
	vmovaps	%ymm5, 160(%rax)
	vmovaps	%ymm6, 192(%rax)
	vmovaps	%ymm7, 224(%rax)
	vmovaps	%xmm8, 256(%rax)
	vmovaps	544(%rbp), %xmm6
	vmovaps	560(%rbp), %xmm7
	vmovaps	576(%rbp), %xmm8
	leaq	592(%rbp), %rsp
	popq	%rbx
	popq	%rdi
	popq	%rsi
	popq	%r14
	popq	%rbp
	vzeroupper
	retq
.Ltmp63:
.Lfunc_end4:

	.def	compare;
	.scl	2;
	.type	32;
	.endef
	.globl	compare
	.p2align	4, 0x90
compare:
.Lfunc_begin5:
	.cv_func_id 9
	.cv_loc	9 4 112 0
	.cv_loc	9 4 113 2
	cmpq	40(%rsp), %r8
	.cv_loc	9 4 116 2
	jne	.LBB5_1
.Ltmp64:
	movb	$1, %al
	testq	%r8, %r8
	jle	.LBB5_2
.Ltmp65:
	xorl	%r10d, %r10d
.Ltmp66:
	.p2align	4, 0x90
.LBB5_6:
	.cv_loc	9 4 117 3
	movzbl	(%rdx,%r10), %ecx
	cmpb	(%r9,%r10), %cl
.Ltmp67:
	.cv_loc	9 4 116 2
	jne	.LBB5_1
.Ltmp68:
	incq	%r10
.Ltmp69:
	cmpq	%r8, %r10
	jl	.LBB5_6
.Ltmp70:
.LBB5_2:
	retq
.Ltmp71:
.LBB5_1:
	xorl	%eax, %eax
	retq
.Ltmp72:
.Lfunc_end5:

	.def	to_string;
	.scl	2;
	.type	32;
	.endef
	.globl	to_string
	.p2align	4, 0x90
to_string:
.Lfunc_begin6:
	.cv_func_id 10
	.cv_loc	10 4 122 0
	pushq	%r14
	pushq	%rsi
	pushq	%rdi
	pushq	%rbx
	subq	$40, %rsp
	movq	%rdx, %rbx
	movq	%rcx, %r14
	movq	$-1, %rdi
.Ltmp73:
	.p2align	4, 0x90
.LBB6_1:
	.cv_inline_site_id 11 within 10 inlined_at 4 123 2
	.cv_loc	11 4 258 2
	cmpb	$0, 1(%rbx,%rdi)
	leaq	1(%rdi), %rdi
.Ltmp74:
	jne	.LBB6_1
.Ltmp75:
	.cv_inline_site_id 12 within 10 inlined_at 4 124 2
	.cv_loc	12 3 14 2
	movq	%rdi, %rcx
	callq	malloc
	movq	%rax, %rsi
.Ltmp76:
	.cv_loc	12 3 15 8
	movq	%rax, %rcx
	xorl	%edx, %edx
	movq	%rdi, %r8
	callq	memset
.Ltmp77:
	.cv_inline_site_id 13 within 10 inlined_at 4 125 6
	.cv_loc	13 4 249 2
	testq	%rdi, %rdi
	jle	.LBB6_4
.Ltmp78:
	.cv_loc	13 4 251 3
	movq	%rsi, %rcx
	movq	%rbx, %rdx
	movq	%rdi, %r8
	callq	memcpy
.Ltmp79:
.LBB6_4:
	.cv_loc	10 4 127 5
	movq	(%r14), %rax
	movq	%rsi, (%rax)
	movq	%rdi, 8(%rax)
	addq	$40, %rsp
	popq	%rbx
	popq	%rdi
	popq	%rsi
.Ltmp80:
	popq	%r14
	retq
.Ltmp81:
.Lfunc_end6:

	.def	terminate_string;
	.scl	2;
	.type	32;
	.endef
	.globl	terminate_string
	.p2align	4, 0x90
terminate_string:
.Lfunc_begin7:
	.cv_func_id 14
	.cv_loc	14 4 131 0
	pushq	%r15
	pushq	%r14
	pushq	%rsi
	pushq	%rdi
	pushq	%rbx
	subq	$32, %rsp
	movq	%r8, %rbx
	movq	%rdx, %rdi
	movq	%rcx, %r14
.Ltmp82:
	.cv_loc	14 4 133 2
	leaq	1(%r8), %r15
.Ltmp83:
	.cv_inline_site_id 15 within 14 inlined_at 4 134 2
	.cv_loc	15 3 14 2
	movq	%r15, %rcx
	callq	malloc
	movq	%rax, %rsi
.Ltmp84:
	.cv_loc	15 3 15 8
	movq	%rax, %rcx
	xorl	%edx, %edx
	movq	%r15, %r8
	callq	memset
.Ltmp85:
	.cv_inline_site_id 16 within 14 inlined_at 4 135 6
	.cv_loc	16 4 249 2
	testq	%rbx, %rbx
	jle	.LBB7_7
.Ltmp86:
	xorl	%eax, %eax
	cmpq	$4, %rbx
	jb	.LBB7_6
.Ltmp87:
	movq	%rsi, %rcx
	subq	%rdi, %rcx
	cmpq	$4, %rcx
	jb	.LBB7_6
.Ltmp88:
	movq	%rbx, %rax
	andq	$-4, %rax
	xorl	%ecx, %ecx
.Ltmp89:
	.p2align	4, 0x90
.LBB7_4:
	.cv_loc	16 4 251 3
	movl	(%rdi,%rcx), %edx
	movl	%edx, (%rsi,%rcx)
	.cv_loc	16 4 252 2
	addq	$4, %rcx
	cmpq	%rcx, %rax
	jne	.LBB7_4
.Ltmp90:
	.cv_loc	16 4 249 2
	cmpq	%rax, %rbx
	je	.LBB7_7
.Ltmp91:
	.p2align	4, 0x90
.LBB7_6:
	.cv_loc	16 4 251 3
	movzbl	(%rdi,%rax), %ecx
	movb	%cl, (%rsi,%rax)
	.cv_loc	16 4 252 2
	incq	%rax
.Ltmp92:
	.cv_loc	16 4 249 2
	cmpq	%rbx, %rax
	jl	.LBB7_6
.Ltmp93:
.LBB7_7:
	.cv_loc	14 4 136 2
	movb	$0, (%rsi,%r15)
	.cv_loc	14 4 137 5
	movq	(%r14), %rax
	movq	%rsi, (%rax)
	movq	%r15, 8(%rax)
	addq	$32, %rsp
	popq	%rbx
.Ltmp94:
	popq	%rdi
.Ltmp95:
	popq	%rsi
.Ltmp96:
	popq	%r14
	popq	%r15
.Ltmp97:
	retq
.Ltmp98:
.Lfunc_end7:

	.def	build_unsigned_int;
	.scl	2;
	.type	32;
	.endef
	.globl	build_unsigned_int
	.p2align	4, 0x90
build_unsigned_int:
.Lfunc_begin8:
	.cv_func_id 17
	.cv_loc	17 4 140 0
	pushq	%rsi
	pushq	%rdi
	pushq	%rbx
	subq	$32, %rsp
	.cv_loc	17 4 141 2
	testq	%r8, %r8
	.cv_loc	17 4 146 1
	je	.LBB8_11
.Ltmp99:
	.cv_loc	17 4 143 21
	movq	%r9, %rsi
	movq	%rdx, %rdi
	movabsq	$-3689348814741910323, %rax
	mulxq	%rax, %rdx, %rdx
	shrq	$3, %rdx
	leal	(%rdx,%rdx), %eax
	leal	(%rax,%rax,4), %eax
	subl	%eax, %edi
.Ltmp100:
	decq	%r8
	callq	build_unsigned_int
	.cv_loc	17 4 144 4
	orb	$48, %dil
.Ltmp101:
	.cv_inline_site_id 18 within 17 inlined_at 4 144 4
	.cv_loc	18 4 94 2
	movq	256(%rsi), %rax
	testq	%rsi, %rsi
	je	.LBB8_10
.Ltmp102:
	cmpq	$256, %rax
	jne	.LBB8_10
.Ltmp103:
	leaq	256(%rsi), %rbx
.Ltmp104:
	.p2align	4, 0x90
.LBB8_4:
	.cv_loc	18 4 95 3
	cmpq	$0, 264(%rsi)
	.cv_loc	18 4 100 2
	je	.LBB8_5
.Ltmp105:
	.cv_loc	18 4 98 3
	cmpq	$256, (%rbx)
	.cv_loc	18 4 100 2
	jne	.LBB8_8
.Ltmp106:
.LBB8_7:
	.cv_loc	18 4 99 4
	movq	264(%rsi), %rsi
.Ltmp107:
.LBB8_8:
	.cv_loc	18 4 94 2
	movq	256(%rsi), %rax
	testq	%rsi, %rsi
	je	.LBB8_10
.Ltmp108:
	leaq	256(%rsi), %rbx
	cmpq	$256, %rax
	je	.LBB8_4
	jmp	.LBB8_10
.Ltmp109:
	.p2align	4, 0x90
.LBB8_5:
	.cv_inline_site_id 19 within 18 inlined_at 4 96 4
	.cv_loc	19 3 14 2
	movl	$272, %ecx
	vzeroupper
	callq	malloc
.Ltmp110:
	vxorps	%xmm0, %xmm0, %xmm0
	.cv_loc	19 3 15 8
	vmovups	%ymm0, (%rax)
	vmovups	%ymm0, 32(%rax)
	vmovups	%ymm0, 64(%rax)
	vmovups	%ymm0, 96(%rax)
	vmovups	%ymm0, 128(%rax)
	vmovups	%ymm0, 160(%rax)
	vmovups	%ymm0, 192(%rax)
	vmovups	%ymm0, 224(%rax)
	vmovups	%ymm0, 240(%rax)
.Ltmp111:
	.cv_loc	18 4 96 4
	movq	%rax, 264(%rsi)
	.cv_loc	18 4 98 3
	cmpq	$256, (%rbx)
	.cv_loc	18 4 100 2
	je	.LBB8_7
	jmp	.LBB8_8
.Ltmp112:
.LBB8_10:
	.cv_loc	18 4 101 2
	movb	%dil, (%rsi,%rax)
	.cv_loc	18 4 102 2
	incq	256(%rsi)
.Ltmp113:
.LBB8_11:
	.cv_loc	17 4 146 1
	addq	$32, %rsp
	popq	%rbx
	popq	%rdi
	popq	%rsi
	vzeroupper
	retq
.Ltmp114:
.Lfunc_end8:

	.def	int_to_str;
	.scl	2;
	.type	32;
	.endef
	.globl	int_to_str
	.p2align	4, 0x90
int_to_str:
.Lfunc_begin9:
	.cv_func_id 20
	.cv_loc	20 4 149 0
	pushq	%r15
	pushq	%r14
	pushq	%rsi
	pushq	%rdi
	pushq	%rbx
	subq	$32, %rsp
	movq	%r8, %r15
.Ltmp115:
	.cv_loc	20 4 150 2
	testq	%rdx, %rdx
	.cv_loc	20 4 157 2
	je	.LBB9_15
.Ltmp116:
	movq	%rdx, %r14
	xorl	%ebx, %ebx
	movabsq	$7378697629483820647, %rdi
	movq	%rdx, %rcx
.Ltmp117:
	.p2align	4, 0x90
.LBB9_2:
	.cv_loc	20 4 158 3
	movq	%rcx, %rax
	imulq	%rdi
	movq	%rdx, %rax
	shrq	$63, %rax
	sarq	$2, %rdx
	addq	%rax, %rdx
.Ltmp118:
	.cv_loc	20 4 157 2
	addq	$9, %rcx
	incq	%rbx
.Ltmp119:
	cmpq	$18, %rcx
	movq	%rdx, %rcx
	ja	.LBB9_2
.Ltmp120:
	.cv_loc	20 4 160 2
	testq	%r14, %r14
	.cv_loc	20 4 166 1
	jns	.LBB9_14
.Ltmp121:
	.cv_inline_site_id 21 within 20 inlined_at 4 161 4
	.cv_loc	21 4 94 2
	movq	256(%r15), %rax
	movq	%r15, %rsi
	testq	%r15, %r15
	je	.LBB9_13
.Ltmp122:
	cmpq	$256, %rax
	jne	.LBB9_13
.Ltmp123:
	leaq	256(%r15), %rdi
	movq	%r15, %rsi
.Ltmp124:
	.p2align	4, 0x90
.LBB9_7:
	.cv_loc	21 4 95 3
	cmpq	$0, 264(%rsi)
	.cv_loc	21 4 100 2
	je	.LBB9_8
.Ltmp125:
	.cv_loc	21 4 98 3
	cmpq	$256, (%rdi)
	.cv_loc	21 4 100 2
	jne	.LBB9_11
.Ltmp126:
.LBB9_10:
	.cv_loc	21 4 99 4
	movq	264(%rsi), %rsi
.Ltmp127:
.LBB9_11:
	.cv_loc	21 4 94 2
	movq	256(%rsi), %rax
	testq	%rsi, %rsi
	je	.LBB9_13
.Ltmp128:
	leaq	256(%rsi), %rdi
	cmpq	$256, %rax
	je	.LBB9_7
	jmp	.LBB9_13
.Ltmp129:
	.p2align	4, 0x90
.LBB9_8:
	.cv_inline_site_id 22 within 21 inlined_at 4 96 4
	.cv_loc	22 3 14 2
	movl	$272, %ecx
	vzeroupper
	callq	malloc
.Ltmp130:
	vxorps	%xmm0, %xmm0, %xmm0
	.cv_loc	22 3 15 8
	vmovups	%ymm0, (%rax)
	vmovups	%ymm0, 32(%rax)
	vmovups	%ymm0, 64(%rax)
	vmovups	%ymm0, 96(%rax)
	vmovups	%ymm0, 128(%rax)
	vmovups	%ymm0, 160(%rax)
	vmovups	%ymm0, 192(%rax)
	vmovups	%ymm0, 224(%rax)
	vmovups	%ymm0, 240(%rax)
.Ltmp131:
	.cv_loc	21 4 96 4
	movq	%rax, 264(%rsi)
	.cv_loc	21 4 98 3
	cmpq	$256, (%rdi)
	.cv_loc	21 4 100 2
	je	.LBB9_10
	jmp	.LBB9_11
.Ltmp132:
.LBB9_15:
	.cv_inline_site_id 23 within 20 inlined_at 4 151 4
	.cv_loc	23 4 94 2
	movq	256(%r15), %rax
	testq	%r15, %r15
	je	.LBB9_24
.Ltmp133:
	cmpq	$256, %rax
	jne	.LBB9_24
.Ltmp134:
	leaq	256(%r15), %rsi
.Ltmp135:
	.p2align	4, 0x90
.LBB9_18:
	.cv_loc	23 4 95 3
	cmpq	$0, 264(%r15)
	.cv_loc	23 4 100 2
	je	.LBB9_19
.Ltmp136:
	.cv_loc	23 4 98 3
	cmpq	$256, (%rsi)
	.cv_loc	23 4 100 2
	jne	.LBB9_22
.Ltmp137:
.LBB9_21:
	.cv_loc	23 4 99 4
	movq	264(%r15), %r15
.Ltmp138:
.LBB9_22:
	.cv_loc	23 4 94 2
	movq	256(%r15), %rax
	testq	%r15, %r15
	je	.LBB9_24
.Ltmp139:
	leaq	256(%r15), %rsi
	cmpq	$256, %rax
	je	.LBB9_18
	jmp	.LBB9_24
.Ltmp140:
	.p2align	4, 0x90
.LBB9_19:
	.cv_inline_site_id 24 within 23 inlined_at 4 96 4
	.cv_loc	24 3 14 2
	movl	$272, %ecx
	vzeroupper
	callq	malloc
.Ltmp141:
	vxorps	%xmm0, %xmm0, %xmm0
	.cv_loc	24 3 15 8
	vmovups	%ymm0, (%rax)
	vmovups	%ymm0, 32(%rax)
	vmovups	%ymm0, 64(%rax)
	vmovups	%ymm0, 96(%rax)
	vmovups	%ymm0, 128(%rax)
	vmovups	%ymm0, 160(%rax)
	vmovups	%ymm0, 192(%rax)
	vmovups	%ymm0, 224(%rax)
	vmovups	%ymm0, 240(%rax)
.Ltmp142:
	.cv_loc	23 4 96 4
	movq	%rax, 264(%r15)
	.cv_loc	23 4 98 3
	cmpq	$256, (%rsi)
	.cv_loc	23 4 100 2
	je	.LBB9_21
	jmp	.LBB9_22
.Ltmp143:
.LBB9_24:
	.cv_loc	23 4 101 2
	movb	$48, (%r15,%rax)
	.cv_loc	23 4 102 2
	incq	256(%r15)
	jmp	.LBB9_25
.Ltmp144:
.LBB9_13:
	.cv_loc	21 4 101 2
	incq	%rbx
.Ltmp145:
	movb	$45, (%rsi,%rax)
	.cv_loc	21 4 102 2
	incq	256(%rsi)
.Ltmp146:
	.cv_loc	20 4 162 3
	negq	%r14
.Ltmp147:
.LBB9_14:
	.cv_loc	20 4 165 20
	movq	%r14, %rdx
	movq	%rbx, %r8
	movq	%r15, %r9
	vzeroupper
	callq	build_unsigned_int
.Ltmp148:
.LBB9_25:
	addq	$32, %rsp
	popq	%rbx
	popq	%rdi
	popq	%rsi
	popq	%r14
	popq	%r15
	vzeroupper
	retq
.Ltmp149:
.Lfunc_end9:

	.def	float_to_str;
	.scl	2;
	.type	32;
	.endef
	.globl	__xmm@80000000000000008000000000000000
	.section	.rdata,"dr",discard,__xmm@80000000000000008000000000000000
	.p2align	4
__xmm@80000000000000008000000000000000:
	.quad	0x8000000000000000
	.quad	0x8000000000000000
	.globl	__real@43e0000000000000
	.section	.rdata,"dr",discard,__real@43e0000000000000
	.p2align	3
__real@43e0000000000000:
	.quad	0x43e0000000000000
	.globl	__xmm@00000000000000004530000043300000
	.section	.rdata,"dr",discard,__xmm@00000000000000004530000043300000
	.p2align	4
__xmm@00000000000000004530000043300000:
	.long	1127219200
	.long	1160773632
	.long	0
	.long	0
	.globl	__xmm@45300000000000004330000000000000
	.section	.rdata,"dr",discard,__xmm@45300000000000004330000000000000
	.p2align	4
__xmm@45300000000000004330000000000000:
	.quad	0x4330000000000000
	.quad	0x4530000000000000
	.globl	__real@4024000000000000
	.section	.rdata,"dr",discard,__real@4024000000000000
	.p2align	3
__real@4024000000000000:
	.quad	0x4024000000000000
	.text
	.globl	float_to_str
	.p2align	4, 0x90
float_to_str:
.Lfunc_begin10:
	.cv_func_id 25
	.cv_loc	25 4 169 0
	pushq	%r15
	pushq	%r14
	pushq	%r12
	pushq	%rsi
	pushq	%rdi
	pushq	%rbx
	subq	$72, %rsp
	vmovaps	%xmm7, 48(%rsp)
	vmovaps	%xmm6, 32(%rsp)
	movq	%r8, %r15
	vmovapd	%xmm1, %xmm6
.Ltmp150:
	vxorpd	%xmm0, %xmm0, %xmm0
.Ltmp151:
	.cv_loc	25 4 170 2
	vucomisd	%xmm0, %xmm1
	.cv_loc	25 4 185 2
	jae	.LBB10_11
.Ltmp152:
	.cv_inline_site_id 26 within 25 inlined_at 4 171 4
	.cv_loc	26 4 94 2
	movq	256(%r15), %rax
	movq	%r15, %rdi
	testq	%r15, %r15
	je	.LBB10_10
.Ltmp153:
	cmpq	$256, %rax
	jne	.LBB10_10
.Ltmp154:
	leaq	256(%r15), %rsi
	movq	%r15, %rdi
.Ltmp155:
	.p2align	4, 0x90
.LBB10_4:
	.cv_loc	26 4 95 3
	cmpq	$0, 264(%rdi)
	.cv_loc	26 4 100 2
	je	.LBB10_5
.Ltmp156:
	.cv_loc	26 4 98 3
	cmpq	$256, (%rsi)
	.cv_loc	26 4 100 2
	jne	.LBB10_8
.Ltmp157:
.LBB10_7:
	.cv_loc	26 4 99 4
	movq	264(%rdi), %rdi
.Ltmp158:
.LBB10_8:
	.cv_loc	26 4 94 2
	movq	256(%rdi), %rax
	testq	%rdi, %rdi
	je	.LBB10_10
.Ltmp159:
	leaq	256(%rdi), %rsi
	cmpq	$256, %rax
	je	.LBB10_4
	jmp	.LBB10_10
.Ltmp160:
	.p2align	4, 0x90
.LBB10_5:
	.cv_inline_site_id 27 within 26 inlined_at 4 96 4
	.cv_loc	27 3 14 2
	movl	$272, %ecx
	vzeroupper
	callq	malloc
.Ltmp161:
	vxorpd	%xmm0, %xmm0, %xmm0
	.cv_loc	27 3 15 8
	vmovupd	%ymm0, (%rax)
	vmovupd	%ymm0, 32(%rax)
	vmovupd	%ymm0, 64(%rax)
	vmovupd	%ymm0, 96(%rax)
	vmovupd	%ymm0, 128(%rax)
	vmovupd	%ymm0, 160(%rax)
	vmovupd	%ymm0, 192(%rax)
	vmovupd	%ymm0, 224(%rax)
	vmovupd	%ymm0, 240(%rax)
.Ltmp162:
	.cv_loc	26 4 96 4
	movq	%rax, 264(%rdi)
	.cv_loc	26 4 98 3
	cmpq	$256, (%rsi)
	.cv_loc	26 4 100 2
	je	.LBB10_7
	jmp	.LBB10_8
.Ltmp163:
.LBB10_10:
	.cv_loc	26 4 101 2
	movb	$45, (%rdi,%rax)
	.cv_loc	26 4 102 2
	incq	256(%rdi)
.Ltmp164:
	.cv_loc	25 4 172 3
	vxorpd	__xmm@80000000000000008000000000000000(%rip), %xmm6, %xmm6
.Ltmp165:
.LBB10_11:
	.cv_loc	25 4 175 2
	vcvttsd2si	%xmm6, %rax
	movq	%rax, %rcx
	vsubsd	__real@43e0000000000000(%rip), %xmm6, %xmm0
	sarq	$63, %rcx
	vcvttsd2si	%xmm0, %rdx
	andq	%rcx, %rdx
	orq	%rax, %rdx
.Ltmp166:
	.cv_loc	25 4 176 2
	vmovq	%rdx, %xmm0
	vpunpckldq	__xmm@00000000000000004530000043300000(%rip), %xmm0, %xmm0
	vsubpd	__xmm@45300000000000004330000000000000(%rip), %xmm0, %xmm0
	vpermilpd	$1, %xmm0, %xmm1
	vaddsd	%xmm0, %xmm1, %xmm7
.Ltmp167:
	.cv_loc	25 4 185 2
	je	.LBB10_12
.Ltmp168:
	.cv_loc	25 4 181 17
	movq	%r15, %r8
	vzeroupper
	callq	int_to_str
	jmp	.LBB10_22
.Ltmp169:
.LBB10_12:
	.cv_inline_site_id 28 within 25 inlined_at 4 179 4
	.cv_loc	28 4 94 2
	movq	256(%r15), %rax
	movq	%r15, %rdi
	testq	%r15, %r15
	je	.LBB10_21
.Ltmp170:
	cmpq	$256, %rax
	jne	.LBB10_21
.Ltmp171:
	leaq	256(%r15), %rsi
	movq	%r15, %rdi
.Ltmp172:
	.p2align	4, 0x90
.LBB10_15:
	.cv_loc	28 4 95 3
	cmpq	$0, 264(%rdi)
	.cv_loc	28 4 100 2
	je	.LBB10_16
.Ltmp173:
	.cv_loc	28 4 98 3
	cmpq	$256, (%rsi)
	.cv_loc	28 4 100 2
	jne	.LBB10_19
.Ltmp174:
.LBB10_18:
	.cv_loc	28 4 99 4
	movq	264(%rdi), %rdi
.Ltmp175:
.LBB10_19:
	.cv_loc	28 4 94 2
	movq	256(%rdi), %rax
	testq	%rdi, %rdi
	je	.LBB10_21
.Ltmp176:
	leaq	256(%rdi), %rsi
	cmpq	$256, %rax
	je	.LBB10_15
	jmp	.LBB10_21
.Ltmp177:
	.p2align	4, 0x90
.LBB10_16:
	.cv_inline_site_id 29 within 28 inlined_at 4 96 4
	.cv_loc	29 3 14 2
	movl	$272, %ecx
	vzeroupper
	callq	malloc
.Ltmp178:
	vxorpd	%xmm0, %xmm0, %xmm0
	.cv_loc	29 3 15 8
	vmovupd	%ymm0, (%rax)
	vmovupd	%ymm0, 32(%rax)
	vmovupd	%ymm0, 64(%rax)
	vmovupd	%ymm0, 96(%rax)
	vmovupd	%ymm0, 128(%rax)
	vmovupd	%ymm0, 160(%rax)
	vmovupd	%ymm0, 192(%rax)
	vmovupd	%ymm0, 224(%rax)
	vmovupd	%ymm0, 240(%rax)
.Ltmp179:
	.cv_loc	28 4 96 4
	movq	%rax, 264(%rdi)
	.cv_loc	28 4 98 3
	cmpq	$256, (%rsi)
	.cv_loc	28 4 100 2
	je	.LBB10_18
	jmp	.LBB10_19
.Ltmp180:
.LBB10_21:
	.cv_loc	28 4 101 2
	movb	$48, (%rdi,%rax)
	.cv_loc	28 4 102 2
	incq	256(%rdi)
.Ltmp181:
.LBB10_22:
	.cv_inline_site_id 30 within 25 inlined_at 4 182 3
	.cv_loc	30 4 94 2
	vsubsd	%xmm7, %xmm6, %xmm6
.Ltmp182:
	leaq	256(%r15), %r14
	movq	256(%r15), %rax
	movq	%r15, %rdi
	testq	%r15, %r15
	je	.LBB10_31
.Ltmp183:
	cmpq	$256, %rax
	jne	.LBB10_31
.Ltmp184:
	movq	%r14, %rsi
	movq	%r15, %rdi
.Ltmp185:
	.p2align	4, 0x90
.LBB10_25:
	.cv_loc	30 4 95 3
	cmpq	$0, 264(%rdi)
	.cv_loc	30 4 100 2
	je	.LBB10_26
.Ltmp186:
	.cv_loc	30 4 98 3
	cmpq	$256, (%rsi)
	.cv_loc	30 4 100 2
	jne	.LBB10_29
.Ltmp187:
.LBB10_28:
	.cv_loc	30 4 99 4
	movq	264(%rdi), %rdi
.Ltmp188:
.LBB10_29:
	.cv_loc	30 4 94 2
	movq	256(%rdi), %rax
	testq	%rdi, %rdi
	je	.LBB10_31
.Ltmp189:
	leaq	256(%rdi), %rsi
	cmpq	$256, %rax
	je	.LBB10_25
	jmp	.LBB10_31
.Ltmp190:
	.p2align	4, 0x90
.LBB10_26:
	.cv_inline_site_id 31 within 30 inlined_at 4 96 4
	.cv_loc	31 3 14 2
	movl	$272, %ecx
	vzeroupper
	callq	malloc
.Ltmp191:
	vxorpd	%xmm0, %xmm0, %xmm0
	.cv_loc	31 3 15 8
	vmovupd	%ymm0, (%rax)
	vmovupd	%ymm0, 32(%rax)
	vmovupd	%ymm0, 64(%rax)
	vmovupd	%ymm0, 96(%rax)
	vmovupd	%ymm0, 128(%rax)
	vmovupd	%ymm0, 160(%rax)
	vmovupd	%ymm0, 192(%rax)
	vmovupd	%ymm0, 224(%rax)
	vmovupd	%ymm0, 240(%rax)
.Ltmp192:
	.cv_loc	30 4 96 4
	movq	%rax, 264(%rdi)
	.cv_loc	30 4 98 3
	cmpq	$256, (%rsi)
	.cv_loc	30 4 100 2
	je	.LBB10_28
	jmp	.LBB10_29
.Ltmp193:
.LBB10_31:
	.cv_loc	30 4 101 2
	movb	$46, (%rdi,%rax)
	.cv_loc	30 4 102 2
	incq	256(%rdi)
.Ltmp194:
	.cv_loc	25 4 185 2
	vcvttsd2si	%xmm6, %rax
	movq	%rax, %rcx
	vsubsd	__real@43e0000000000000(%rip), %xmm6, %xmm0
	vcvttsd2si	%xmm0, %rdx
	sarq	$63, %rcx
	andq	%rcx, %rdx
	orq	%rax, %rdx
	vmovq	%rdx, %xmm0
	vpunpckldq	__xmm@00000000000000004530000043300000(%rip), %xmm0, %xmm0
	vsubpd	__xmm@45300000000000004330000000000000(%rip), %xmm0, %xmm0
	vpermilpd	$1, %xmm0, %xmm1
	vaddsd	%xmm0, %xmm1, %xmm0
	xorl	%r12d, %r12d
	vucomisd	%xmm0, %xmm6
	jne	.LBB10_45
	jnp	.LBB10_32
.Ltmp195:
.LBB10_45:
	vmovsd	__real@4024000000000000(%rip), %xmm0
	vmovsd	__real@43e0000000000000(%rip), %xmm1
	vmovdqa	__xmm@00000000000000004530000043300000(%rip), %xmm2
	vmovapd	__xmm@45300000000000004330000000000000(%rip), %xmm3
.Ltmp196:
	.p2align	4, 0x90
.LBB10_46:
	.cv_loc	25 4 186 3
	vmulsd	%xmm0, %xmm6, %xmm6
.Ltmp197:
	.cv_loc	25 4 187 3
	vcvttsd2si	%xmm6, %rax
	movq	%rax, %rcx
	sarq	$63, %rcx
	vsubsd	%xmm1, %xmm6, %xmm4
	vcvttsd2si	%xmm4, %rdx
	andq	%rcx, %rdx
	orq	%rax, %rdx
	.cv_loc	25 4 188 2
	cmpq	$1, %rdx
	adcq	$0, %r12
.Ltmp198:
	.cv_loc	25 4 185 2
	vmovq	%rdx, %xmm4
	vpunpckldq	%xmm2, %xmm4, %xmm4
	vsubpd	%xmm3, %xmm4, %xmm4
	vpermilpd	$1, %xmm4, %xmm5
	vaddsd	%xmm4, %xmm5, %xmm4
	vucomisd	%xmm4, %xmm6
	jne	.LBB10_46
	jp	.LBB10_46
.Ltmp199:
.LBB10_32:
	.cv_loc	25 4 190 2
	testq	%r12, %r12
	jle	.LBB10_44
.Ltmp200:
	xorl	%edi, %edi
	jmp	.LBB10_34
.Ltmp201:
	.p2align	4, 0x90
.LBB10_43:
	.cv_inline_site_id 32 within 25 inlined_at 4 191 4
	.cv_loc	32 4 101 2
	movb	$48, (%rsi,%rax)
	.cv_loc	32 4 102 2
	incq	256(%rsi)
.Ltmp202:
	.cv_loc	25 4 192 2
	incq	%rdi
.Ltmp203:
	.cv_loc	25 4 190 2
	cmpq	%r12, %rdi
	jge	.LBB10_44
.Ltmp204:
.LBB10_34:
	.cv_loc	32 4 94 2
	movq	256(%r15), %rax
	movq	%r15, %rsi
.Ltmp205:
	.cv_loc	30 4 94 2
	testq	%r15, %r15
.Ltmp206:
	.cv_loc	32 4 94 2
	je	.LBB10_43
.Ltmp207:
	cmpq	$256, %rax
	jne	.LBB10_43
.Ltmp208:
	movq	%r14, %rbx
	movq	%r15, %rsi
.Ltmp209:
	.p2align	4, 0x90
.LBB10_37:
	.cv_loc	32 4 95 3
	cmpq	$0, 264(%rsi)
	.cv_loc	32 4 100 2
	je	.LBB10_38
.Ltmp210:
	.cv_loc	32 4 98 3
	cmpq	$256, (%rbx)
	.cv_loc	32 4 100 2
	jne	.LBB10_41
.Ltmp211:
.LBB10_40:
	.cv_loc	32 4 99 4
	movq	264(%rsi), %rsi
.Ltmp212:
.LBB10_41:
	.cv_loc	32 4 94 2
	movq	256(%rsi), %rax
	testq	%rsi, %rsi
	je	.LBB10_43
.Ltmp213:
	leaq	256(%rsi), %rbx
	cmpq	$256, %rax
	je	.LBB10_37
	jmp	.LBB10_43
.Ltmp214:
	.p2align	4, 0x90
.LBB10_38:
	.cv_inline_site_id 33 within 32 inlined_at 4 96 4
	.cv_loc	33 3 14 2
	movl	$272, %ecx
	vzeroupper
	callq	malloc
.Ltmp215:
	vxorpd	%xmm0, %xmm0, %xmm0
	.cv_loc	33 3 15 8
	vmovupd	%ymm0, (%rax)
	vmovupd	%ymm0, 32(%rax)
	vmovupd	%ymm0, 64(%rax)
	vmovupd	%ymm0, 96(%rax)
	vmovupd	%ymm0, 128(%rax)
	vmovupd	%ymm0, 160(%rax)
	vmovupd	%ymm0, 192(%rax)
	vmovupd	%ymm0, 224(%rax)
	vmovupd	%ymm0, 240(%rax)
.Ltmp216:
	.cv_loc	32 4 96 4
	movq	%rax, 264(%rsi)
	.cv_loc	32 4 98 3
	cmpq	$256, (%rbx)
	.cv_loc	32 4 100 2
	je	.LBB10_40
	jmp	.LBB10_41
.Ltmp217:
.LBB10_44:
	.cv_loc	25 4 194 12
	vcvttsd2si	%xmm6, %rdx
	movq	%r15, %r8
	vzeroupper
	callq	int_to_str
	vmovaps	32(%rsp), %xmm6
	vmovaps	48(%rsp), %xmm7
	.cv_loc	25 4 195 1
	addq	$72, %rsp
	popq	%rbx
	popq	%rdi
	popq	%rsi
	popq	%r12
	popq	%r14
	popq	%r15
	retq
.Ltmp218:
.Lfunc_end10:

	.def	parse_format;
	.scl	2;
	.type	32;
	.endef
	.globl	parse_format
	.p2align	4, 0x90
parse_format:
.Lfunc_begin11:
	.cv_func_id 34
	.cv_loc	34 4 198 0
	pushq	%rbp
	pushq	%r15
	pushq	%r14
	pushq	%r13
	pushq	%r12
	pushq	%rsi
	pushq	%rdi
	pushq	%rbx
	subq	$696, %rsp
	leaq	128(%rsp), %rbp
	andq	$-256, %rsp
	movq	%r9, %r13
	movq	%r8, %rsi
	movq	%rdx, 232(%rsp)
	movq	%rcx, 224(%rsp)
.Ltmp219:
	.cv_loc	34 4 199 2
	vxorps	%xmm0, %xmm0, %xmm0
	vmovups	%ymm0, 496(%rsp)
	vmovaps	%ymm0, 480(%rsp)
	vmovaps	%ymm0, 448(%rsp)
	vmovaps	%ymm0, 416(%rsp)
	vmovaps	%ymm0, 384(%rsp)
	vmovaps	%ymm0, 352(%rsp)
	vmovaps	%ymm0, 320(%rsp)
	vmovaps	%ymm0, 288(%rsp)
	vmovaps	%ymm0, 256(%rsp)
	leaq	256(%rsp), %rdi
	movq	%rdi, 248(%rsp)
	leaq	.L__unnamed_5(%rip), %rdx
	leaq	248(%rsp), %rcx
	vzeroupper
	callq	init_builder
.Ltmp220:
	movq	%rsi, 240(%rsp)
.Ltmp221:
	.cv_loc	34 4 201 2
	testq	%rsi, %rsi
	jle	.LBB11_6
.Ltmp222:
	xorl	%r12d, %r12d
	xorl	%r14d, %r14d
	jmp	.LBB11_2
.Ltmp223:
	.p2align	4, 0x90
.LBB11_58:
	.cv_inline_site_id 35 within 34 inlined_at 4 215 4
	.cv_loc	35 4 101 2
	movb	%r15b, (%rsi,%rax)
	.cv_loc	35 4 102 2
	incq	256(%rsi)
.Ltmp224:
.LBB11_59:
	.cv_loc	34 4 217 2
	incq	%r14
.Ltmp225:
	.cv_loc	34 4 201 2
	cmpq	240(%rsp), %r14
	jge	.LBB11_6
.Ltmp226:
.LBB11_2:
	.cv_inline_site_id 36 within 34 inlined_at 4 202 3
	.cv_loc	36 4 61 5
	movq	232(%rsp), %rax
.Ltmp227:
	movb	(%rax,%r14), %r15b
.Ltmp228:
	.cv_loc	34 4 202 3
	cmpb	$37, %r15b
	.cv_loc	34 4 217 2
	jne	.LBB11_50
.Ltmp229:
	.cv_loc	34 4 203 4
	movq	%r12, %rax
	shlq	$4, %rax
	movq	(%r13,%rax), %rcx
	movq	8(%r13,%rax), %rsi
.Ltmp230:
	.cv_loc	34 4 204 4
	incq	%r12
.Ltmp231:
	.cv_loc	34 4 205 4
	movl	(%rcx), %eax
.Ltmp232:
	.cv_loc	34 4 214 3
	cmpl	$3, %eax
	je	.LBB11_40
.Ltmp233:
	cmpl	$4, %eax
	jne	.LBB11_41
.Ltmp234:
	.cv_loc	34 4 209 11
	vmovq	(%rsi), %xmm1
	leaq	.L__unnamed_6(%rip), %rcx
.Ltmp235:
	vmovq	%xmm1, %rdx
	vzeroupper
	callq	printf
	.cv_loc	34 4 210 17
	vmovsd	(%rsi), %xmm1
	leaq	256(%rsp), %r8
	callq	float_to_str
	jmp	.LBB11_59
.Ltmp236:
	.p2align	4, 0x90
.LBB11_50:
	.cv_loc	35 4 94 2
	movq	512(%rsp), %rax
	leaq	256(%rsp), %rsi
	cmpq	$256, %rax
	jne	.LBB11_58
.Ltmp237:
	leaq	512(%rsp), %rbx
	leaq	256(%rsp), %rsi
.Ltmp238:
	.p2align	4, 0x90
.LBB11_52:
	.cv_loc	35 4 95 3
	cmpq	$0, 264(%rsi)
	.cv_loc	35 4 100 2
	je	.LBB11_53
.Ltmp239:
	.cv_loc	35 4 98 3
	cmpq	$256, (%rbx)
	.cv_loc	35 4 100 2
	jne	.LBB11_56
.Ltmp240:
.LBB11_55:
	.cv_loc	35 4 99 4
	movq	264(%rsi), %rsi
.Ltmp241:
.LBB11_56:
	.cv_loc	35 4 94 2
	movq	256(%rsi), %rax
	testq	%rsi, %rsi
	je	.LBB11_58
.Ltmp242:
	leaq	256(%rsi), %rbx
	cmpq	$256, %rax
	je	.LBB11_52
	jmp	.LBB11_58
.Ltmp243:
	.p2align	4, 0x90
.LBB11_53:
	.cv_inline_site_id 37 within 35 inlined_at 4 96 4
	.cv_loc	37 3 14 2
	movl	$272, %ecx
	vzeroupper
	callq	malloc
.Ltmp244:
	.cv_loc	34 4 199 2
	vxorps	%xmm0, %xmm0, %xmm0
.Ltmp245:
	.cv_loc	37 3 15 8
	vmovups	%ymm0, (%rax)
	vmovups	%ymm0, 32(%rax)
	vmovups	%ymm0, 64(%rax)
	vmovups	%ymm0, 96(%rax)
	vmovups	%ymm0, 128(%rax)
	vmovups	%ymm0, 160(%rax)
	vmovups	%ymm0, 192(%rax)
	vmovups	%ymm0, 224(%rax)
	vmovups	%ymm0, 240(%rax)
.Ltmp246:
	.cv_loc	35 4 96 4
	movq	%rax, 264(%rsi)
	.cv_loc	35 4 98 3
	cmpq	$256, (%rbx)
	.cv_loc	35 4 100 2
	je	.LBB11_55
	jmp	.LBB11_56
.Ltmp247:
.LBB11_40:
	.cv_loc	34 4 207 15
	movq	(%rsi), %rdx
	leaq	256(%rsp), %r8
	vzeroupper
	callq	int_to_str
.Ltmp248:
	jmp	.LBB11_59
.Ltmp249:
.LBB11_41:
	.cv_inline_site_id 38 within 34 inlined_at 4 212 5
	.cv_loc	38 4 94 2
	movq	%r13, %rbx
.Ltmp250:
	movq	512(%rsp), %rax
	leaq	256(%rsp), %r13
	cmpq	$256, %rax
	jne	.LBB11_49
.Ltmp251:
	leaq	512(%rsp), %rsi
	leaq	256(%rsp), %r13
.Ltmp252:
	.p2align	4, 0x90
.LBB11_43:
	.cv_loc	38 4 95 3
	cmpq	$0, 264(%r13)
	.cv_loc	38 4 100 2
	je	.LBB11_44
.Ltmp253:
	.cv_loc	38 4 98 3
	cmpq	$256, (%rsi)
	.cv_loc	38 4 100 2
	jne	.LBB11_47
.Ltmp254:
.LBB11_46:
	.cv_loc	38 4 99 4
	movq	264(%r13), %r13
.Ltmp255:
.LBB11_47:
	.cv_loc	38 4 94 2
	movq	256(%r13), %rax
	testq	%r13, %r13
	je	.LBB11_49
.Ltmp256:
	leaq	256(%r13), %rsi
	cmpq	$256, %rax
	je	.LBB11_43
	jmp	.LBB11_49
.Ltmp257:
	.p2align	4, 0x90
.LBB11_44:
	.cv_inline_site_id 39 within 38 inlined_at 4 96 4
	.cv_loc	39 3 14 2
	movl	$272, %ecx
	vzeroupper
	callq	malloc
.Ltmp258:
	.cv_loc	34 4 199 2
	vxorps	%xmm0, %xmm0, %xmm0
.Ltmp259:
	.cv_loc	39 3 15 8
	vmovups	%ymm0, (%rax)
	vmovups	%ymm0, 32(%rax)
	vmovups	%ymm0, 64(%rax)
	vmovups	%ymm0, 96(%rax)
	vmovups	%ymm0, 128(%rax)
	vmovups	%ymm0, 160(%rax)
	vmovups	%ymm0, 192(%rax)
	vmovups	%ymm0, 224(%rax)
	vmovups	%ymm0, 240(%rax)
.Ltmp260:
	.cv_loc	38 4 96 4
	movq	%rax, 264(%r13)
	.cv_loc	38 4 98 3
	cmpq	$256, (%rsi)
	.cv_loc	38 4 100 2
	je	.LBB11_46
	jmp	.LBB11_47
.Ltmp261:
.LBB11_49:
	.cv_loc	38 4 101 2
	movb	%r15b, (%r13,%rax)
	.cv_loc	38 4 102 2
	incq	256(%r13)
	movq	%rbx, %r13
	jmp	.LBB11_59
.Ltmp262:
.LBB11_6:
	.cv_inline_site_id 40 within 34 inlined_at 4 218 2
	.cv_loc	40 4 94 2
	movq	512(%rsp), %rax
	movq	%rdi, %rsi
	cmpq	$256, %rax
	jne	.LBB11_14
.Ltmp263:
	leaq	512(%rsp), %rbx
	leaq	256(%rsp), %rsi
.Ltmp264:
	.p2align	4, 0x90
.LBB11_8:
	.cv_loc	40 4 95 3
	cmpq	$0, 264(%rsi)
	.cv_loc	40 4 100 2
	je	.LBB11_9
.Ltmp265:
	.cv_loc	40 4 98 3
	cmpq	$256, (%rbx)
	.cv_loc	40 4 100 2
	jne	.LBB11_12
.Ltmp266:
.LBB11_11:
	.cv_loc	40 4 99 4
	movq	264(%rsi), %rsi
.Ltmp267:
.LBB11_12:
	.cv_loc	40 4 94 2
	movq	256(%rsi), %rax
	testq	%rsi, %rsi
	je	.LBB11_14
.Ltmp268:
	leaq	256(%rsi), %rbx
	cmpq	$256, %rax
	je	.LBB11_8
	jmp	.LBB11_14
.Ltmp269:
	.p2align	4, 0x90
.LBB11_9:
	.cv_inline_site_id 41 within 40 inlined_at 4 96 4
	.cv_loc	41 3 14 2
	movl	$272, %ecx
	vzeroupper
	callq	malloc
.Ltmp270:
	vxorps	%xmm0, %xmm0, %xmm0
	.cv_loc	41 3 15 8
	vmovups	%ymm0, (%rax)
	vmovups	%ymm0, 32(%rax)
	vmovups	%ymm0, 64(%rax)
	vmovups	%ymm0, 96(%rax)
	vmovups	%ymm0, 128(%rax)
	vmovups	%ymm0, 160(%rax)
	vmovups	%ymm0, 192(%rax)
	vmovups	%ymm0, 224(%rax)
	vmovups	%ymm0, 240(%rax)
.Ltmp271:
	.cv_loc	40 4 96 4
	movq	%rax, 264(%rsi)
	.cv_loc	40 4 98 3
	cmpq	$256, (%rbx)
	.cv_loc	40 4 100 2
	je	.LBB11_11
	jmp	.LBB11_12
.Ltmp272:
.LBB11_14:
	.cv_loc	40 4 101 2
	movb	$10, (%rsi,%rax)
	.cv_loc	40 4 102 2
	incq	256(%rsi)
.Ltmp273:
	.cv_inline_site_id 42 within 34 inlined_at 4 219 2
	.cv_loc	42 4 22 2
	movq	520(%rsp), %rax
	testq	%rax, %rax
	je	.LBB11_15
.Ltmp274:
	leaq	256(%rsp), %rcx
	xorl	%r15d, %r15d
.Ltmp275:
	.p2align	4, 0x90
.LBB11_17:
	.cv_loc	42 4 23 3
	addq	256(%rcx), %r15
.Ltmp276:
	movq	%rax, %rdi
	.cv_loc	42 4 22 2
	movq	264(%rax), %rax
.Ltmp277:
	movq	%rdi, %rcx
	testq	%rax, %rax
	jne	.LBB11_17
	jmp	.LBB11_18
.Ltmp278:
.LBB11_15:
	xorl	%r15d, %r15d
.Ltmp279:
.LBB11_18:
	.cv_loc	42 4 26 2
	addq	256(%rdi), %r15
.Ltmp280:
	.cv_inline_site_id 43 within 42 inlined_at 4 27 2
	.cv_loc	43 3 14 2
	movq	%r15, %rcx
	vzeroupper
	callq	malloc
	movq	%rax, %r14
.Ltmp281:
	xorl	%r12d, %r12d
	.cv_loc	43 3 15 8
	movq	%rax, %rcx
	xorl	%edx, %edx
	movq	%r15, %r8
	callq	memset
.Ltmp282:
	.cv_loc	42 4 31 2
	cmpq	$0, 264(%rdi)
	je	.LBB11_30
.Ltmp283:
	leaq	264(%rdi), %r8
	xorl	%r12d, %r12d
	movq	%r14, %rax
	jmp	.LBB11_20
.Ltmp284:
	.p2align	4, 0x90
.LBB11_28:
	.cv_loc	42 4 33 3
	movq	(%r8), %rdi
.Ltmp285:
	.cv_loc	42 4 34 3
	incq	%r12
.Ltmp286:
	.cv_loc	42 4 31 2
	leaq	264(%rdi), %r8
	addq	$256, %rax
	cmpq	$0, 264(%rdi)
	je	.LBB11_29
.Ltmp287:
.LBB11_20:
	.cv_loc	42 4 32 7
	movq	256(%rdi), %rsi
.Ltmp288:
	.cv_inline_site_id 44 within 42 inlined_at 4 32 7
	.cv_loc	44 4 249 2
	testq	%rsi, %rsi
	jle	.LBB11_28
.Ltmp289:
	cmpq	$4, %rsi
	jb	.LBB11_22
.Ltmp290:
	movq	%r12, %rcx
	shlq	$8, %rcx
	addq	%r14, %rcx
.Ltmp291:
	subq	%rdi, %rcx
	movl	$0, %edx
	cmpq	$4, %rcx
	jb	.LBB11_27
.Ltmp292:
	movq	%rsi, %rdx
	andq	$-4, %rdx
	xorl	%ecx, %ecx
.Ltmp293:
	.p2align	4, 0x90
.LBB11_25:
	.cv_loc	44 4 251 3
	movl	(%rdi,%rcx), %ebx
	movl	%ebx, (%rax,%rcx)
	.cv_loc	44 4 252 2
	addq	$4, %rcx
	cmpq	%rcx, %rdx
	jne	.LBB11_25
.Ltmp294:
	.cv_loc	44 4 249 2
	cmpq	%rdx, %rsi
	jne	.LBB11_27
	jmp	.LBB11_28
.Ltmp295:
.LBB11_22:
	xorl	%edx, %edx
.Ltmp296:
	.p2align	4, 0x90
.LBB11_27:
	.cv_loc	44 4 251 3
	movzbl	(%rdi,%rdx), %ecx
	movb	%cl, (%rax,%rdx)
	.cv_loc	44 4 252 2
	incq	%rdx
.Ltmp297:
	.cv_loc	44 4 249 2
	cmpq	%rsi, %rdx
	jl	.LBB11_27
	jmp	.LBB11_28
.Ltmp298:
.LBB11_29:
	.cv_loc	42 4 36 6
	shlq	$8, %r12
.Ltmp299:
.LBB11_30:
	movq	256(%rdi), %rax
.Ltmp300:
	.cv_inline_site_id 45 within 42 inlined_at 4 36 6
	.cv_loc	45 4 249 2
	testq	%rax, %rax
	jle	.LBB11_39
.Ltmp301:
	movq	%r14, %rcx
	addq	%r12, %rcx
.Ltmp302:
	cmpq	$8, %rax
	jae	.LBB11_33
.Ltmp303:
	xorl	%edx, %edx
	jmp	.LBB11_38
.Ltmp304:
.LBB11_33:
	movq	%rcx, %rdx
	subq	%rdi, %rdx
	cmpq	$4, %rdx
	jae	.LBB11_35
.Ltmp305:
	xorl	%edx, %edx
	jmp	.LBB11_38
.Ltmp306:
.LBB11_35:
	movq	%rax, %rdx
	andq	$-4, %rdx
	xorl	%ebx, %ebx
.Ltmp307:
	.p2align	4, 0x90
.LBB11_36:
	.cv_loc	45 4 251 3
	movl	(%rdi,%rbx), %esi
	movl	%esi, (%rcx,%rbx)
	.cv_loc	45 4 252 2
	addq	$4, %rbx
	cmpq	%rbx, %rdx
	jne	.LBB11_36
.Ltmp308:
	.cv_loc	45 4 249 2
	cmpq	%rdx, %rax
	je	.LBB11_39
.Ltmp309:
	.p2align	4, 0x90
.LBB11_38:
	.cv_loc	45 4 251 3
	movzbl	(%rdi,%rdx), %ebx
	movb	%bl, (%rcx,%rdx)
	.cv_loc	45 4 252 2
	incq	%rdx
.Ltmp310:
	.cv_loc	45 4 249 2
	cmpq	%rax, %rdx
	jl	.LBB11_38
.Ltmp311:
.LBB11_39:
	.cv_loc	34 4 220 5
	movq	224(%rsp), %rax
	movq	(%rax), %rax
	movq	%r14, (%rax)
	movq	%r15, 8(%rax)
	leaq	568(%rbp), %rsp
.Ltmp312:
	popq	%rbx
	popq	%rdi
	popq	%rsi
	popq	%r12
	popq	%r13
	popq	%r14
.Ltmp313:
	popq	%r15
.Ltmp314:
	popq	%rbp
	retq
.Ltmp315:
.Lfunc_end11:

	.def	"print!@* u8!@-";
	.scl	2;
	.type	32;
	.endef
	.globl	"print!@* u8!@-"
	.p2align	4, 0x90
"print!@* u8!@-":
.Lfunc_begin12:
	.cv_func_id 46
	.cv_loc	46 4 224 0
.seh_proc "print!@* u8!@-"
	pushq	%rsi
	.seh_pushreg %rsi
	pushq	%rdi
	.seh_pushreg %rdi
	pushq	%rbx
	.seh_pushreg %rbx
	subq	$80, %rsp
	.seh_stackalloc 80
	.seh_endprologue
	movq	%rdx, %rdi
	movq	%r8, 128(%rsp)
	movq	%r9, 136(%rsp)
	movq	$-1, %rsi
.Ltmp316:
	.p2align	4, 0x90
.LBB12_1:
	.cv_inline_site_id 47 within 46 inlined_at 4 225 2
	.cv_inline_site_id 48 within 47 inlined_at 4 123 2
	.cv_loc	48 4 258 2
	cmpb	$0, 1(%rdi,%rsi)
	leaq	1(%rsi), %rsi
.Ltmp317:
	jne	.LBB12_1
.Ltmp318:
	.cv_inline_site_id 49 within 47 inlined_at 4 124 2
	.cv_loc	49 3 14 2
	movq	%rsi, %rcx
	callq	malloc
	movq	%rax, %rbx
.Ltmp319:
	.cv_loc	49 3 15 8
	movq	%rax, %rcx
	xorl	%edx, %edx
	movq	%rsi, %r8
	callq	memset
.Ltmp320:
	.cv_inline_site_id 50 within 47 inlined_at 4 125 6
	.cv_loc	50 4 249 2
	testq	%rsi, %rsi
	jle	.LBB12_4
.Ltmp321:
	.cv_loc	50 4 251 3
	movq	%rbx, %rcx
	movq	%rdi, %rdx
	movq	%rsi, %r8
	callq	memcpy
.Ltmp322:
.LBB12_4:
	.cv_loc	46 4 227 15
	leaq	128(%rsp), %r9
.Ltmp323:
	movq	%r9, 72(%rsp)
	.cv_loc	46 4 228 2
	vxorps	%xmm0, %xmm0, %xmm0
	vmovaps	%xmm0, 48(%rsp)
	leaq	48(%rsp), %rax
	movq	%rax, 64(%rsp)
	leaq	64(%rsp), %rcx
	movq	%rbx, %rdx
	movq	%rsi, %r8
	callq	parse_format
.Ltmp324:
	.cv_file	5 "E:\\C_Projects\\Apocalypse\\Standard\\Windows.apoc"
	.cv_inline_site_id 51 within 46 inlined_at 4 230 2
	.cv_loc	51 5 48 5
	movl	$-11, %ecx
	callq	GetStdHandle
.Ltmp325:
	.cv_loc	46 4 231 12
	movq	48(%rsp), %rdx
	movl	56(%rsp), %r8d
.Ltmp326:
	.cv_inline_site_id 52 within 46 inlined_at 4 231 12
	.cv_loc	52 5 40 2
	movq	$0, 40(%rsp)
.Ltmp327:
	.cv_loc	52 5 41 11
	movq	$0, 32(%rsp)
	leaq	40(%rsp), %r9
	movq	%rax, %rcx
	callq	WriteFile
.Ltmp328:
	.cv_loc	46 4 232 1
	nop
	addq	$80, %rsp
	popq	%rbx
.Ltmp329:
	popq	%rdi
.Ltmp330:
	popq	%rsi
	retq
.Ltmp331:
.Lfunc_end12:
	.seh_endproc

	.def	"print!@string!@-";
	.scl	2;
	.type	32;
	.endef
	.globl	"print!@string!@-"
	.p2align	4, 0x90
"print!@string!@-":
.Lfunc_begin13:
	.cv_func_id 53
	.cv_loc	53 4 235 0
.seh_proc "print!@string!@-"
	subq	$88, %rsp
	.seh_stackalloc 88
	.seh_endprologue
	movq	%r9, 120(%rsp)
	leaq	120(%rsp), %r9
.Ltmp332:
	.cv_loc	53 4 237 15
	movq	%r9, 80(%rsp)
	.cv_loc	53 4 238 2
	vxorps	%xmm0, %xmm0, %xmm0
	vmovaps	%xmm0, 48(%rsp)
	leaq	48(%rsp), %rax
	movq	%rax, 72(%rsp)
	leaq	72(%rsp), %rcx
	callq	parse_format
.Ltmp333:
	.cv_inline_site_id 54 within 53 inlined_at 4 240 2
	.cv_loc	54 5 48 5
	movl	$-11, %ecx
	callq	GetStdHandle
.Ltmp334:
	.cv_loc	53 4 241 12
	movq	48(%rsp), %rdx
	movl	56(%rsp), %r8d
.Ltmp335:
	.cv_inline_site_id 55 within 53 inlined_at 4 241 12
	.cv_loc	55 5 40 2
	movq	$0, 40(%rsp)
.Ltmp336:
	.cv_loc	55 5 41 11
	movq	$0, 32(%rsp)
	leaq	40(%rsp), %r9
	movq	%rax, %rcx
	callq	WriteFile
.Ltmp337:
	.cv_loc	53 4 242 1
	nop
	addq	$88, %rsp
	retq
.Ltmp338:
.Lfunc_end13:
	.seh_endproc

	.def	copy;
	.scl	2;
	.type	32;
	.endef
	.globl	copy
	.p2align	4, 0x90
copy:
.Lfunc_begin14:
	.cv_func_id 56
	.cv_loc	56 4 246 0
	.cv_loc	56 4 249 2
	testq	%r9, %r9
	jle	.LBB14_7
.Ltmp339:
	xorl	%r10d, %r10d
	cmpq	$4, %r9
	jb	.LBB14_6
.Ltmp340:
	movq	%rdx, %rcx
	subq	%r8, %rcx
	cmpq	$4, %rcx
	jb	.LBB14_6
.Ltmp341:
	movq	%r9, %r10
	andq	$-4, %r10
	xorl	%ecx, %ecx
.Ltmp342:
	.p2align	4, 0x90
.LBB14_4:
	.cv_loc	56 4 251 3
	movl	(%r8,%rcx), %eax
	movl	%eax, (%rdx,%rcx)
	.cv_loc	56 4 252 2
	addq	$4, %rcx
	cmpq	%rcx, %r10
	jne	.LBB14_4
.Ltmp343:
	.cv_loc	56 4 249 2
	cmpq	%r9, %r10
	je	.LBB14_7
.Ltmp344:
	.p2align	4, 0x90
.LBB14_6:
	.cv_loc	56 4 251 3
	movzbl	(%r8,%r10), %eax
	movb	%al, (%rdx,%r10)
	.cv_loc	56 4 252 2
	incq	%r10
.Ltmp345:
	.cv_loc	56 4 249 2
	cmpq	%r9, %r10
	jl	.LBB14_6
.Ltmp346:
.LBB14_7:
	.cv_loc	56 4 253 1
	retq
.Ltmp347:
.Lfunc_end14:

	.def	len;
	.scl	2;
	.type	32;
	.endef
	.globl	len
	.p2align	4, 0x90
len:
.Lfunc_begin15:
	.cv_func_id 57
	.cv_loc	57 4 256 0
	movq	$-1, %rax
.Ltmp348:
	.p2align	4, 0x90
.LBB15_1:
	.cv_loc	57 4 258 2
	cmpb	$0, 1(%rdx,%rax)
	leaq	1(%rax), %rax
.Ltmp349:
	jne	.LBB15_1
.Ltmp350:
	.cv_loc	57 4 259 5
	retq
.Ltmp351:
.Lfunc_end15:

	.def	open_file;
	.scl	2;
	.type	32;
	.endef
	.globl	open_file
	.p2align	4, 0x90
open_file:
.Lfunc_begin16:
	.cv_func_id 58
	.cv_loc	58 5 27 0
.seh_proc open_file
	subq	$56, %rsp
	.seh_stackalloc 56
	.seh_endprologue
	movq	%rdx, %rcx
.Ltmp352:
	.cv_loc	58 5 29 2
	andl	$1, %r8d
	negl	%r8d
.Ltmp353:
	.cv_loc	58 5 35 5
	andl	$1180063, %r8d
.Ltmp354:
	.cv_loc	58 5 32 2
	movq	$0, 48(%rsp)
	movq	$32, 40(%rsp)
	movq	$4, 32(%rsp)
	movq	%r8, %rdx
	xorl	%r8d, %r8d
.Ltmp355:
	xorl	%r9d, %r9d
	callq	CreateFileA
.Ltmp356:
	.cv_loc	58 5 35 5
	nop
	addq	$56, %rsp
	retq
.Ltmp357:
.Lfunc_end16:
	.seh_endproc

	.def	write_file;
	.scl	2;
	.type	32;
	.endef
	.globl	write_file
	.p2align	4, 0x90
write_file:
.Lfunc_begin17:
	.cv_func_id 59
	.cv_loc	59 5 39 0
.seh_proc write_file
	pushq	%rsi
	.seh_pushreg %rsi
	subq	$64, %rsp
	.seh_stackalloc 64
	.seh_endprologue
	movl	%r9d, %esi
	movq	%rdx, %rcx
.Ltmp358:
	.cv_loc	59 5 40 2
	movq	$0, 56(%rsp)
.Ltmp359:
	.cv_loc	59 5 41 11
	movq	$0, 32(%rsp)
	leaq	56(%rsp), %r9
.Ltmp360:
	movq	%r8, %rdx
.Ltmp361:
	movl	%esi, %r8d
.Ltmp362:
	callq	WriteFile
.Ltmp363:
	.cv_loc	59 5 42 2
	cmpl	%esi, 56(%rsp)
	sete	%al
.Ltmp364:
	sete	55(%rsp)
	.cv_loc	59 5 43 5
	addq	$64, %rsp
	popq	%rsi
.Ltmp365:
	retq
.Ltmp366:
.Lfunc_end17:
	.seh_endproc

	.def	get_stdout;
	.scl	2;
	.type	32;
	.endef
	.globl	get_stdout
	.p2align	4, 0x90
get_stdout:
.Lfunc_begin18:
	.cv_func_id 60
	.cv_loc	60 5 47 0
.seh_proc get_stdout
	subq	$40, %rsp
	.seh_stackalloc 40
	.seh_endprologue
.Ltmp367:
	.cv_loc	60 5 48 5
	movl	$-11, %ecx
	callq	GetStdHandle
	nop
	addq	$40, %rsp
	retq
.Ltmp368:
.Lfunc_end18:
	.seh_endproc

	.def	"overload[]";
	.scl	2;
	.type	32;
	.endef
	.globl	"overload[]"
	.p2align	4, 0x90
"overload[]":
.Lfunc_begin19:
	.cv_func_id 61
	.cv_loc	61 4 61 5
	movb	(%rcx,%r8), %al
	retq
.Ltmp369:
.Lfunc_end19:

	.def	"overload+¥ÔB¶M";
	.scl	2;
	.type	32;
	.endef
	.globl	"overload+¥ÔB¶M"
	.p2align	4, 0x90
"overload+¥ÔB¶M":
.Lfunc_begin20:
	.cv_func_id 62
	.cv_loc	62 4 65 0
	pushq	%r15
	pushq	%r14
	pushq	%r12
	pushq	%rsi
	pushq	%rdi
	pushq	%rbx
	subq	$40, %rsp
	movq	%r8, %rsi
	movq	%rdx, %r15
	movq	%rcx, %r12
.Ltmp370:
	movq	$-1, %rbx
.Ltmp371:
	.p2align	4, 0x90
.LBB20_1:
	.cv_inline_site_id 63 within 62 inlined_at 4 67 2
	.cv_loc	63 4 258 2
	cmpb	$0, 1(%rsi,%rbx)
	leaq	1(%rbx), %rbx
.Ltmp372:
	jne	.LBB20_1
.Ltmp373:
	.cv_inline_site_id 64 within 62 inlined_at 4 69 2
	.cv_loc	64 3 14 2
	leaq	(%r15,%rbx), %r14
	movq	%r14, %rcx
	callq	malloc
	movq	%rax, %rdi
.Ltmp374:
	.cv_loc	64 3 15 8
	movq	%rax, %rcx
	xorl	%edx, %edx
	movq	%r14, %r8
	callq	memset
.Ltmp375:
	.cv_inline_site_id 65 within 62 inlined_at 4 70 6
	.cv_loc	65 4 249 2
	testq	%r15, %r15
	jle	.LBB20_9
.Ltmp376:
	xorl	%eax, %eax
	cmpq	$4, %r15
	jb	.LBB20_8
.Ltmp377:
	movq	%rdi, %rcx
	subq	%r12, %rcx
	cmpq	$4, %rcx
	jb	.LBB20_8
.Ltmp378:
	movq	%r15, %rax
	andq	$-4, %rax
	xorl	%ecx, %ecx
.Ltmp379:
	.p2align	4, 0x90
.LBB20_6:
	.cv_loc	65 4 251 3
	movl	(%r12,%rcx), %edx
	movl	%edx, (%rdi,%rcx)
	.cv_loc	65 4 252 2
	addq	$4, %rcx
	cmpq	%rcx, %rax
	jne	.LBB20_6
.Ltmp380:
	.cv_loc	65 4 249 2
	cmpq	%rax, %r15
	je	.LBB20_9
.Ltmp381:
	.p2align	4, 0x90
.LBB20_8:
	.cv_loc	65 4 251 3
	movzbl	(%r12,%rax), %ecx
	movb	%cl, (%rdi,%rax)
	.cv_loc	65 4 252 2
	incq	%rax
.Ltmp382:
	.cv_loc	65 4 249 2
	cmpq	%r15, %rax
	jl	.LBB20_8
.Ltmp383:
.LBB20_9:
	.cv_inline_site_id 66 within 62 inlined_at 4 71 6
	.cv_loc	66 4 249 2
	testq	%rbx, %rbx
	jle	.LBB20_11
.Ltmp384:
	.cv_loc	62 4 71 6
	movq	%rdi, %rcx
	addq	%r15, %rcx
.Ltmp385:
	.cv_loc	66 4 251 3
	movq	%rsi, %rdx
	movq	%rbx, %r8
	callq	memcpy
.Ltmp386:
.LBB20_11:
	.cv_loc	62 4 72 5
	movq	%rdi, %rax
	movq	%r14, %rdx
	addq	$40, %rsp
	popq	%rbx
	popq	%rdi
.Ltmp387:
	popq	%rsi
	popq	%r12
.Ltmp388:
	popq	%r14
	popq	%r15
.Ltmp389:
	retq
.Ltmp390:
.Lfunc_end20:

	.def	"overload[x]=";
	.scl	2;
	.type	32;
	.endef
	.globl	"overload[x]="
	.p2align	4, 0x90
"overload[x]=":
.Lfunc_begin21:
	.cv_func_id 67
	.cv_loc	67 4 76 0
	pushq	%r15
	pushq	%r14
	pushq	%r12
	pushq	%rsi
	pushq	%rdi
	pushq	%rbp
	pushq	%rbx
.Ltmp391:
	movq	$-1, %r11
.Ltmp392:
	.p2align	4, 0x90
.LBB21_1:
	.cv_inline_site_id 68 within 67 inlined_at 4 77 2
	.cv_loc	68 4 258 2
	cmpb	$0, 1(%rdx,%r11)
	leaq	1(%r11), %r11
.Ltmp393:
	jne	.LBB21_1
.Ltmp394:
	.cv_loc	67 4 78 2
	leaq	255(%r11), %r8
	testq	%r11, %r11
	cmovnsq	%r11, %r8
.Ltmp395:
	.cv_loc	67 4 80 2
	cmpq	$-255, %r11
	jl	.LBB21_14
.Ltmp396:
	sarq	$8, %r8
	xorl	%r9d, %r9d
	movabsq	$9223372036854775804, %r10
	movq	%rdx, %r12
	jmp	.LBB21_4
.Ltmp397:
	.p2align	4, 0x90
.LBB21_13:
	.cv_loc	67 4 84 3
	addq	%rsi, 256(%rcx)
	.cv_loc	67 4 85 3
	addq	$-256, %r11
.Ltmp398:
	.cv_loc	67 4 86 3
	movq	264(%rcx), %rcx
.Ltmp399:
	.cv_loc	67 4 87 2
	leaq	1(%r9), %rax
.Ltmp400:
	.cv_loc	67 4 80 2
	addq	$256, %r12
	cmpq	%r8, %r9
	movq	%rax, %r9
	jge	.LBB21_14
.Ltmp401:
.LBB21_4:
	.cv_loc	68 4 258 2
	cmpq	$256, %r11
	movl	$256, %esi
	cmovlq	%r11, %rsi
.Ltmp402:
	cmpq	$2, %rsi
	movl	$1, %r14d
	cmovgeq	%rsi, %r14
.Ltmp403:
	.cv_inline_site_id 69 within 67 inlined_at 4 83 7
	.cv_loc	69 4 249 2
	testq	%r11, %r11
	jle	.LBB21_13
.Ltmp404:
	movq	256(%rcx), %rdi
	addq	%rcx, %rdi
	cmpq	$8, %r14
	jae	.LBB21_7
.Ltmp405:
	xorl	%ebx, %ebx
	jmp	.LBB21_12
.Ltmp406:
	.p2align	4, 0x90
.LBB21_7:
	movq	%r9, %rax
	shlq	$8, %rax
	addq	%rdx, %rax
	movq	%rdi, %rbx
	subq	%rax, %rbx
	cmpq	$4, %rbx
	jae	.LBB21_9
.Ltmp407:
	xorl	%ebx, %ebx
	jmp	.LBB21_12
.Ltmp408:
.LBB21_9:
	movl	%r14d, %r15d
	andl	$508, %r15d
	movq	%r14, %rbx
	andq	%r10, %rbx
	xorl	%eax, %eax
.Ltmp409:
	.p2align	4, 0x90
.LBB21_10:
	.cv_loc	69 4 251 3
	movl	(%r12,%rax), %ebp
	movl	%ebp, (%rdi,%rax)
	.cv_loc	69 4 252 2
	addq	$4, %rax
	cmpq	%rax, %r15
	jne	.LBB21_10
.Ltmp410:
	.cv_loc	69 4 249 2
	cmpq	%rbx, %r14
	je	.LBB21_13
.Ltmp411:
	.p2align	4, 0x90
.LBB21_12:
	.cv_loc	69 4 251 3
	movzbl	(%r12,%rbx), %eax
	movb	%al, (%rdi,%rbx)
	.cv_loc	69 4 252 2
	incq	%rbx
.Ltmp412:
	.cv_loc	69 4 249 2
	cmpq	%rsi, %rbx
	jl	.LBB21_12
	jmp	.LBB21_13
.Ltmp413:
.LBB21_14:
	.cv_loc	67 4 89 1
	popq	%rbx
	popq	%rbp
	popq	%rdi
	popq	%rsi
	popq	%r12
	popq	%r14
	popq	%r15
	retq
.Ltmp414:
.Lfunc_end21:

	.def	"overload[x]=.9";
	.scl	2;
	.type	32;
	.endef
	.globl	"overload[x]=.9"
	.p2align	4, 0x90
"overload[x]=.9":
.Lfunc_begin22:
	.cv_func_id 70
	.cv_loc	70 4 92 0
	pushq	%rsi
	pushq	%rdi
	pushq	%rbx
	subq	$32, %rsp
.Ltmp415:
	movl	%edx, %ebx
	movq	%rcx, %rsi
.Ltmp416:
	.cv_loc	70 4 94 2
	movq	256(%rcx), %rax
	testq	%rcx, %rcx
	je	.LBB22_9
.Ltmp417:
	cmpq	$256, %rax
	jne	.LBB22_9
.Ltmp418:
	leaq	256(%rsi), %rdi
.Ltmp419:
	.p2align	4, 0x90
.LBB22_3:
	.cv_loc	70 4 95 3
	cmpq	$0, 264(%rsi)
	.cv_loc	70 4 100 2
	je	.LBB22_4
.Ltmp420:
	.cv_loc	70 4 98 3
	cmpq	$256, (%rdi)
	.cv_loc	70 4 100 2
	jne	.LBB22_7
.Ltmp421:
.LBB22_6:
	.cv_loc	70 4 99 4
	movq	264(%rsi), %rsi
.Ltmp422:
.LBB22_7:
	.cv_loc	70 4 94 2
	movq	256(%rsi), %rax
	testq	%rsi, %rsi
	je	.LBB22_9
.Ltmp423:
	leaq	256(%rsi), %rdi
	cmpq	$256, %rax
	je	.LBB22_3
	jmp	.LBB22_9
.Ltmp424:
	.p2align	4, 0x90
.LBB22_4:
	.cv_inline_site_id 71 within 70 inlined_at 4 96 4
	.cv_loc	71 3 14 2
	movl	$272, %ecx
	vzeroupper
	callq	malloc
.Ltmp425:
	vxorps	%xmm0, %xmm0, %xmm0
	.cv_loc	71 3 15 8
	vmovups	%ymm0, (%rax)
	vmovups	%ymm0, 32(%rax)
	vmovups	%ymm0, 64(%rax)
	vmovups	%ymm0, 96(%rax)
	vmovups	%ymm0, 128(%rax)
	vmovups	%ymm0, 160(%rax)
	vmovups	%ymm0, 192(%rax)
	vmovups	%ymm0, 224(%rax)
	vmovups	%ymm0, 240(%rax)
.Ltmp426:
	.cv_loc	70 4 96 4
	movq	%rax, 264(%rsi)
	.cv_loc	70 4 98 3
	cmpq	$256, (%rdi)
	.cv_loc	70 4 100 2
	je	.LBB22_6
	jmp	.LBB22_7
.Ltmp427:
.LBB22_9:
	.cv_loc	70 4 101 2
	movb	%bl, (%rsi,%rax)
	.cv_loc	70 4 102 2
	incq	256(%rsi)
	.cv_loc	70 4 103 1
	addq	$32, %rsp
	popq	%rbx
	popq	%rdi
	popq	%rsi
	vzeroupper
	retq
.Ltmp428:
.Lfunc_end22:

	.def	overload;
	.scl	2;
	.type	32;
	.endef
	.globl	overload
	.p2align	4, 0x90
overload:
.Lfunc_begin23:
	.cv_func_id 72
	.cv_loc	72 4 106 0
	movq	$-1, %rax
.Ltmp429:
	.p2align	4, 0x90
.LBB23_1:
	.cv_inline_site_id 73 within 72 inlined_at 4 107 2
	.cv_loc	73 4 258 2
	cmpb	$0, 1(%r8,%rax)
	leaq	1(%rax), %rax
.Ltmp430:
	jne	.LBB23_1
.Ltmp431:
	.cv_inline_site_id 74 within 72 inlined_at 4 108 5
	.cv_loc	74 4 113 2
	cmpq	%rax, %rdx
	.cv_loc	74 4 116 2
	jne	.LBB23_7
.Ltmp432:
	movb	$1, %al
	testq	%rdx, %rdx
	jle	.LBB23_8
.Ltmp433:
	xorl	%r9d, %r9d
.Ltmp434:
	.p2align	4, 0x90
.LBB23_6:
	.cv_loc	74 4 117 3
	movzbl	(%rcx,%r9), %r10d
	cmpb	(%r8,%r9), %r10b
.Ltmp435:
	.cv_loc	74 4 116 2
	jne	.LBB23_7
.Ltmp436:
	incq	%r9
.Ltmp437:
	cmpq	%rdx, %r9
	jl	.LBB23_6
.Ltmp438:
.LBB23_8:
	.cv_loc	72 4 108 5
	retq
.Ltmp439:
.LBB23_7:
	xorl	%eax, %eax
	retq
.Ltmp440:
.Lfunc_end23:

	.section	.rdata,"dr"
	.globl	global_var
global_var:
	.byte	1

	.globl	global_var.1
global_var.1:
	.byte	0

	.globl	global_var.2
	.p2align	3
global_var.2:
	.quad	0

	.globl	global_var.3
	.p2align	3
global_var.3:
	.quad	256

	.globl	global_var.4
	.p2align	3
global_var.4:
	.quad	65536

	.globl	global_var.5
	.p2align	3
global_var.5:
	.quad	131072

	.globl	global_var.6
	.p2align	3
global_var.6:
	.quad	262144

	.globl	global_var.7
	.p2align	3
global_var.7:
	.quad	524288

	.globl	global_var.8
	.p2align	3
global_var.8:
	.quad	1048576

.L__unnamed_1:
	.asciz	"1st"

.L__unnamed_2:
	.asciz	"2nd"

.L__unnamed_3:
	.asciz	"3rd"

.L__unnamed_4:
	.asciz	"4th"

.L__unnamed_5:
	.zero	1

.L__unnamed_6:
	.asciz	"int: %f\n"
