	.text
	.def	@feat.00;
	.scl	3;
	.type	0;
	.endef
	.globl	@feat.00
.set @feat.00, 0
	.file	"quick_test_2.apoc"
	.def	give_num;
	.scl	2;
	.type	32;
	.endef
	.globl	give_num
	.p2align	4, 0x90
give_num:
.Lfunc_begin0:
	.cv_func_id 0
	.cv_file	1 "E:\\C_Projects\\Apocalypse\\quick_test_2.apoc"
	.cv_loc	0 1 4 5
	movl	$12, %eax
	retq
.Ltmp0:
.Lfunc_end0:

	.def	main;
	.scl	2;
	.type	32;
	.endef
	.globl	main
	.p2align	4, 0x90
main:
.Lfunc_begin1:
	.cv_func_id 1
	.cv_file	2 "E:\\C_Projects\\Apocalypse\\Test.apoc"
	.cv_loc	1 2 9 0
.seh_proc main
	subq	$152, %rsp
	.seh_stackalloc 152
	.seh_endprologue
.Ltmp1:
	movabsq	$4668012349850910720, %rax
.Ltmp2:
	.cv_loc	1 2 13 3
	movq	%rax, global_var(%rip)
	movabsq	$38654705668, %rcx
.Ltmp3:
	.cv_loc	1 2 15 7
	movq	%rcx, 64(%rsp)
	movl	$1082864435, 52(%rsp)
	movabsq	$42949672964, %rcx
	movq	%rcx, 112(%rsp)
	movq	%rax, 56(%rsp)
	leaq	56(%rsp), %rax
	movq	%rax, 40(%rsp)
	leaq	112(%rsp), %rax
	movq	%rax, 32(%rsp)
	leaq	.L__unnamed_1(%rip), %rdx
	leaq	64(%rsp), %r8
	leaq	52(%rsp), %r9
	callq	"print!@* u8!@-"
	.cv_loc	1 2 16 5
	xorl	%eax, %eax
	addq	$152, %rsp
	retq
.Ltmp4:
.Lfunc_end1:
	.seh_endproc

	.def	mem_alloc;
	.scl	2;
	.type	32;
	.endef
	.globl	mem_alloc
	.p2align	4, 0x90
mem_alloc:
.Lfunc_begin2:
	.cv_func_id 2
	.cv_file	3 "E:\\C_Projects\\Apocalypse\\Standard\\C_Standard.apoc"
	.cv_loc	2 3 13 0
	pushq	%rsi
	pushq	%rdi
	subq	$40, %rsp
	movq	%rdx, %rsi
.Ltmp5:
	.cv_loc	2 3 14 2
	movq	%rdx, %rcx
	callq	malloc
	movq	%rax, %rdi
.Ltmp6:
	.cv_loc	2 3 15 8
	movq	%rax, %rcx
	xorl	%edx, %edx
	movq	%rsi, %r8
	callq	memset
	.cv_loc	2 3 16 5
	movq	%rdi, %rax
	addq	$40, %rsp
	popq	%rdi
	popq	%rsi
	retq
.Ltmp7:
.Lfunc_end2:

	.def	builder_to_string;
	.scl	2;
	.type	32;
	.endef
	.globl	builder_to_string
	.p2align	4, 0x90
builder_to_string:
.Lfunc_begin3:
	.cv_func_id 3
	.cv_file	4 "E:\\C_Projects\\Apocalypse\\Standard\\String.apoc"
	.cv_loc	3 4 18 0
	pushq	%r15
	pushq	%r14
	pushq	%r13
	pushq	%r12
	pushq	%rsi
	pushq	%rdi
	pushq	%rbx
	subq	$32, %rsp
.Ltmp8:
	movq	%rdx, %rbx
	movq	%rcx, %r14
.Ltmp9:
	.cv_loc	3 4 22 2
	movq	264(%rdx), %rax
	xorl	%r12d, %r12d
	testq	%rax, %rax
	je	.LBB3_3
.Ltmp10:
	movq	%rbx, %rcx
.Ltmp11:
	.p2align	4, 0x90
.LBB3_2:
	.cv_loc	3 4 23 3
	addq	256(%rcx), %r12
.Ltmp12:
	movq	%rax, %rbx
	.cv_loc	3 4 22 2
	movq	264(%rax), %rax
.Ltmp13:
	movq	%rbx, %rcx
	testq	%rax, %rax
	jne	.LBB3_2
.Ltmp14:
.LBB3_3:
	.cv_loc	3 4 26 2
	addq	256(%rbx), %r12
.Ltmp15:
	.cv_inline_site_id 4 within 3 inlined_at 4 27 2
	.cv_loc	4 3 14 2
	movq	%r12, %rcx
	callq	malloc
	movq	%rax, %r15
.Ltmp16:
	xorl	%r13d, %r13d
	.cv_loc	4 3 15 8
	movq	%rax, %rcx
	xorl	%edx, %edx
	movq	%r12, %r8
	callq	memset
.Ltmp17:
	.cv_loc	3 4 31 2
	cmpq	$0, 264(%rbx)
	je	.LBB3_15
.Ltmp18:
	leaq	264(%rbx), %r8
	xorl	%r13d, %r13d
	movq	%r15, %rax
	jmp	.LBB3_5
.Ltmp19:
	.p2align	4, 0x90
.LBB3_13:
	.cv_loc	3 4 33 3
	movq	(%r8), %rbx
.Ltmp20:
	.cv_loc	3 4 34 3
	incq	%r13
.Ltmp21:
	.cv_loc	3 4 31 2
	leaq	264(%rbx), %r8
	addq	$256, %rax
	cmpq	$0, 264(%rbx)
	je	.LBB3_14
.Ltmp22:
.LBB3_5:
	.cv_loc	3 4 32 7
	movq	256(%rbx), %rdi
.Ltmp23:
	.cv_inline_site_id 5 within 3 inlined_at 4 32 7
	.cv_loc	5 4 265 2
	testq	%rdi, %rdi
	jle	.LBB3_13
.Ltmp24:
	cmpq	$4, %rdi
	jb	.LBB3_7
.Ltmp25:
	movq	%r13, %rcx
	shlq	$8, %rcx
	addq	%r15, %rcx
.Ltmp26:
	subq	%rbx, %rcx
	movl	$0, %edx
	cmpq	$4, %rcx
	jb	.LBB3_12
.Ltmp27:
	movq	%rdi, %rdx
	andq	$-4, %rdx
	xorl	%ecx, %ecx
.Ltmp28:
	.p2align	4, 0x90
.LBB3_10:
	.cv_loc	5 4 267 3
	movl	(%rbx,%rcx), %esi
	movl	%esi, (%rax,%rcx)
	addq	$4, %rcx
	cmpq	%rcx, %rdx
	jne	.LBB3_10
.Ltmp29:
	.cv_loc	5 4 265 2
	cmpq	%rdx, %rdi
	jne	.LBB3_12
	jmp	.LBB3_13
.Ltmp30:
.LBB3_7:
	xorl	%edx, %edx
.Ltmp31:
	.p2align	4, 0x90
.LBB3_12:
	.cv_loc	5 4 267 3
	movzbl	(%rbx,%rdx), %ecx
	movb	%cl, (%rax,%rdx)
	incq	%rdx
.Ltmp32:
	.cv_loc	5 4 265 2
	cmpq	%rdi, %rdx
	jl	.LBB3_12
	jmp	.LBB3_13
.Ltmp33:
.LBB3_14:
	.cv_loc	3 4 36 6
	shlq	$8, %r13
.Ltmp34:
.LBB3_15:
	movq	256(%rbx), %r8
.Ltmp35:
	.cv_inline_site_id 6 within 3 inlined_at 4 36 6
	.cv_loc	6 4 265 2
	testq	%r8, %r8
	jle	.LBB3_24
.Ltmp36:
	movq	%r15, %rcx
	addq	%r13, %rcx
.Ltmp37:
	cmpq	$8, %r8
	jae	.LBB3_18
.Ltmp38:
	xorl	%edx, %edx
	jmp	.LBB3_23
.Ltmp39:
.LBB3_18:
	movq	%rcx, %rdx
	subq	%rbx, %rdx
	cmpq	$4, %rdx
	jae	.LBB3_20
.Ltmp40:
	xorl	%edx, %edx
	jmp	.LBB3_23
.Ltmp41:
.LBB3_20:
	movq	%r8, %rdx
	andq	$-4, %rdx
	xorl	%edi, %edi
.Ltmp42:
	.p2align	4, 0x90
.LBB3_21:
	.cv_loc	6 4 267 3
	movl	(%rbx,%rdi), %esi
	movl	%esi, (%rcx,%rdi)
	addq	$4, %rdi
	cmpq	%rdi, %rdx
	jne	.LBB3_21
.Ltmp43:
	.cv_loc	6 4 265 2
	cmpq	%rdx, %r8
	je	.LBB3_24
.Ltmp44:
	.p2align	4, 0x90
.LBB3_23:
	.cv_loc	6 4 267 3
	movzbl	(%rbx,%rdx), %eax
	movb	%al, (%rcx,%rdx)
	incq	%rdx
.Ltmp45:
	.cv_loc	6 4 265 2
	cmpq	%r8, %rdx
	jl	.LBB3_23
.Ltmp46:
.LBB3_24:
	.cv_loc	3 4 38 5
	movq	(%r14), %rax
	movq	%r15, (%rax)
	movq	%r12, 8(%rax)
	addq	$32, %rsp
	popq	%rbx
.Ltmp47:
	popq	%rdi
	popq	%rsi
	popq	%r12
.Ltmp48:
	popq	%r13
	popq	%r14
	popq	%r15
.Ltmp49:
	retq
.Ltmp50:
.Lfunc_end3:

	.def	init_builder;
	.scl	2;
	.type	32;
	.endef
	.globl	init_builder
	.p2align	4, 0x90
init_builder:
.Lfunc_begin4:
	.cv_func_id 7
	.cv_loc	7 4 42 0
	pushq	%rbp
	pushq	%r14
	pushq	%rsi
	pushq	%rdi
	pushq	%rbx
	subq	$720, %rsp
	leaq	128(%rsp), %rbp
	vmovaps	%xmm8, 576(%rbp)
	vmovaps	%xmm7, 560(%rbp)
	vmovaps	%xmm6, 544(%rbp)
	andq	$-256, %rsp
	movq	%rcx, %r14
.Ltmp51:
	.cv_loc	7 4 43 2
	vxorps	%xmm0, %xmm0, %xmm0
	vmovups	%ymm0, 496(%rsp)
	vmovaps	%ymm0, 480(%rsp)
	vmovaps	%ymm0, 448(%rsp)
	vmovaps	%ymm0, 416(%rsp)
	vmovaps	%ymm0, 384(%rsp)
	vmovaps	%ymm0, 352(%rsp)
	vmovaps	%ymm0, 320(%rsp)
	vmovaps	%ymm0, 288(%rsp)
	vmovaps	%ymm0, 256(%rsp)
.Ltmp52:
	.cv_loc	7 4 46 2
	movb	(%rdx), %cl
	testb	%cl, %cl
	je	.LBB4_5
.Ltmp53:
	movq	%rdx, %rdi
	leaq	256(%rsp), %rbx
	xorl	%eax, %eax
	xorl	%esi, %esi
	jmp	.LBB4_2
.Ltmp54:
	.p2align	4, 0x90
.LBB4_4:
	movq	%rsi, %rcx
	shlq	$8, %rcx
	addq	%rax, %rcx
	incq	%rcx
.Ltmp55:
	.cv_loc	7 4 53 4
	incq	%rax
.Ltmp56:
	.cv_loc	7 4 46 2
	movzbl	(%rdi,%rcx), %ecx
	testb	%cl, %cl
	je	.LBB4_5
.Ltmp57:
.LBB4_2:
	.cv_loc	7 4 47 3
	movb	%cl, (%rbx,%rax)
	.cv_loc	7 4 48 3
	incq	256(%rbx)
	.cv_loc	7 4 49 3
	cmpq	$256, %rax
	.cv_loc	7 4 53 4
	jne	.LBB4_4
.Ltmp58:
	.cv_loc	7 4 51 4
	incq	%rsi
.Ltmp59:
	.cv_inline_site_id 8 within 7 inlined_at 4 52 4
	.cv_loc	8 3 14 2
	movl	$272, %ecx
	vzeroupper
	callq	malloc
.Ltmp60:
	.cv_loc	7 4 43 2
	vxorps	%xmm0, %xmm0, %xmm0
.Ltmp61:
	.cv_loc	8 3 15 8
	vmovups	%ymm0, (%rax)
	vmovups	%ymm0, 32(%rax)
	vmovups	%ymm0, 64(%rax)
	vmovups	%ymm0, 96(%rax)
	vmovups	%ymm0, 128(%rax)
	vmovups	%ymm0, 160(%rax)
	vmovups	%ymm0, 192(%rax)
	vmovups	%ymm0, 224(%rax)
	vmovups	%ymm0, 240(%rax)
.Ltmp62:
	.cv_loc	7 4 52 4
	movq	%rax, 264(%rbx)
	movq	%rax, %rbx
.Ltmp63:
	xorl	%eax, %eax
	jmp	.LBB4_4
.Ltmp64:
.LBB4_5:
	.cv_loc	7 4 56 5
	movq	(%r14), %rax
	vmovaps	256(%rsp), %ymm0
	vmovaps	288(%rsp), %ymm1
	vmovaps	320(%rsp), %ymm2
	vmovaps	352(%rsp), %ymm3
	vmovaps	384(%rsp), %ymm4
	vmovaps	416(%rsp), %ymm5
	vmovaps	448(%rsp), %ymm6
	vmovaps	480(%rsp), %ymm7
	vmovaps	512(%rsp), %xmm8
	vmovaps	%ymm0, (%rax)
	vmovaps	%ymm1, 32(%rax)
	vmovaps	%ymm2, 64(%rax)
	vmovaps	%ymm3, 96(%rax)
	vmovaps	%ymm4, 128(%rax)
	vmovaps	%ymm5, 160(%rax)
	vmovaps	%ymm6, 192(%rax)
	vmovaps	%ymm7, 224(%rax)
	vmovaps	%xmm8, 256(%rax)
	vmovaps	544(%rbp), %xmm6
	vmovaps	560(%rbp), %xmm7
	vmovaps	576(%rbp), %xmm8
	leaq	592(%rbp), %rsp
	popq	%rbx
	popq	%rdi
	popq	%rsi
	popq	%r14
	popq	%rbp
	vzeroupper
	retq
.Ltmp65:
.Lfunc_end4:

	.def	compare;
	.scl	2;
	.type	32;
	.endef
	.globl	compare
	.p2align	4, 0x90
compare:
.Lfunc_begin5:
	.cv_func_id 9
	.cv_loc	9 4 112 0
	.cv_loc	9 4 113 2
	cmpq	40(%rsp), %r8
	.cv_loc	9 4 116 2
	jne	.LBB5_1
.Ltmp66:
	movb	$1, %al
	testq	%r8, %r8
	jle	.LBB5_2
.Ltmp67:
	xorl	%r10d, %r10d
.Ltmp68:
	.p2align	4, 0x90
.LBB5_6:
	.cv_loc	9 4 117 3
	movzbl	(%rdx,%r10), %ecx
	cmpb	(%r9,%r10), %cl
.Ltmp69:
	.cv_loc	9 4 117 38
	jne	.LBB5_1
.Ltmp70:
	incq	%r10
.Ltmp71:
	.cv_loc	9 4 116 2
	cmpq	%r8, %r10
	jl	.LBB5_6
.Ltmp72:
.LBB5_2:
	retq
.Ltmp73:
.LBB5_1:
	xorl	%eax, %eax
	retq
.Ltmp74:
.Lfunc_end5:

	.def	to_string;
	.scl	2;
	.type	32;
	.endef
	.globl	to_string
	.p2align	4, 0x90
to_string:
.Lfunc_begin6:
	.cv_func_id 10
	.cv_loc	10 4 122 0
	pushq	%r14
	pushq	%rsi
	pushq	%rdi
	pushq	%rbx
	subq	$40, %rsp
	movq	%rdx, %rbx
	movq	%rcx, %r14
	movq	$-1, %rdi
.Ltmp75:
	.p2align	4, 0x90
.LBB6_1:
	.cv_inline_site_id 11 within 10 inlined_at 4 123 2
	.cv_loc	11 4 274 2
	cmpb	$0, 1(%rbx,%rdi)
	leaq	1(%rdi), %rdi
.Ltmp76:
	jne	.LBB6_1
.Ltmp77:
	.cv_inline_site_id 12 within 10 inlined_at 4 124 2
	.cv_loc	12 3 14 2
	movq	%rdi, %rcx
	callq	malloc
	movq	%rax, %rsi
.Ltmp78:
	.cv_loc	12 3 15 8
	movq	%rax, %rcx
	xorl	%edx, %edx
	movq	%rdi, %r8
	callq	memset
.Ltmp79:
	.cv_inline_site_id 13 within 10 inlined_at 4 125 6
	.cv_loc	13 4 265 2
	testq	%rdi, %rdi
	jle	.LBB6_4
.Ltmp80:
	.cv_loc	13 4 267 3
	movq	%rsi, %rcx
	movq	%rbx, %rdx
	movq	%rdi, %r8
	callq	memcpy
.Ltmp81:
.LBB6_4:
	.cv_loc	10 4 127 5
	movq	(%r14), %rax
	movq	%rsi, (%rax)
	movq	%rdi, 8(%rax)
	addq	$40, %rsp
	popq	%rbx
	popq	%rdi
	popq	%rsi
.Ltmp82:
	popq	%r14
	retq
.Ltmp83:
.Lfunc_end6:

	.def	terminate_string;
	.scl	2;
	.type	32;
	.endef
	.globl	terminate_string
	.p2align	4, 0x90
terminate_string:
.Lfunc_begin7:
	.cv_func_id 14
	.cv_loc	14 4 131 0
	pushq	%r15
	pushq	%r14
	pushq	%rsi
	pushq	%rdi
	pushq	%rbx
	subq	$32, %rsp
	movq	%r8, %rbx
	movq	%rdx, %rdi
	movq	%rcx, %r14
.Ltmp84:
	.cv_loc	14 4 133 2
	leaq	1(%r8), %r15
.Ltmp85:
	.cv_inline_site_id 15 within 14 inlined_at 4 134 2
	.cv_loc	15 3 14 2
	movq	%r15, %rcx
	callq	malloc
	movq	%rax, %rsi
.Ltmp86:
	.cv_loc	15 3 15 8
	movq	%rax, %rcx
	xorl	%edx, %edx
	movq	%r15, %r8
	callq	memset
.Ltmp87:
	.cv_inline_site_id 16 within 14 inlined_at 4 135 6
	.cv_loc	16 4 265 2
	testq	%rbx, %rbx
	jle	.LBB7_7
.Ltmp88:
	xorl	%eax, %eax
	cmpq	$4, %rbx
	jb	.LBB7_6
.Ltmp89:
	movq	%rsi, %rcx
	subq	%rdi, %rcx
	cmpq	$4, %rcx
	jb	.LBB7_6
.Ltmp90:
	movq	%rbx, %rax
	andq	$-4, %rax
	xorl	%ecx, %ecx
.Ltmp91:
	.p2align	4, 0x90
.LBB7_4:
	.cv_loc	16 4 267 3
	movl	(%rdi,%rcx), %edx
	movl	%edx, (%rsi,%rcx)
	addq	$4, %rcx
	cmpq	%rcx, %rax
	jne	.LBB7_4
.Ltmp92:
	.cv_loc	16 4 265 2
	cmpq	%rax, %rbx
	je	.LBB7_7
.Ltmp93:
	.p2align	4, 0x90
.LBB7_6:
	.cv_loc	16 4 267 3
	movzbl	(%rdi,%rax), %ecx
	movb	%cl, (%rsi,%rax)
	incq	%rax
.Ltmp94:
	.cv_loc	16 4 265 2
	cmpq	%rbx, %rax
	jl	.LBB7_6
.Ltmp95:
.LBB7_7:
	.cv_loc	14 4 136 2
	movb	$0, (%rsi,%r15)
	.cv_loc	14 4 137 5
	movq	(%r14), %rax
	movq	%rsi, (%rax)
	movq	%r15, 8(%rax)
	addq	$32, %rsp
	popq	%rbx
.Ltmp96:
	popq	%rdi
.Ltmp97:
	popq	%rsi
.Ltmp98:
	popq	%r14
	popq	%r15
.Ltmp99:
	retq
.Ltmp100:
.Lfunc_end7:

	.def	build_unsigned_int;
	.scl	2;
	.type	32;
	.endef
	.globl	build_unsigned_int
	.p2align	4, 0x90
build_unsigned_int:
.Lfunc_begin8:
	.cv_func_id 17
	.cv_loc	17 4 140 0
	pushq	%rsi
	pushq	%rdi
	pushq	%rbx
	subq	$32, %rsp
	.cv_loc	17 4 141 2
	testq	%r8, %r8
	.cv_loc	17 4 146 1
	je	.LBB8_11
.Ltmp101:
	.cv_loc	17 4 143 21
	movq	%r9, %rsi
	movq	%rdx, %rdi
	movabsq	$-3689348814741910323, %rax
	mulxq	%rax, %rdx, %rdx
	shrq	$3, %rdx
	leal	(%rdx,%rdx), %eax
	leal	(%rax,%rax,4), %eax
	subl	%eax, %edi
.Ltmp102:
	decq	%r8
	callq	build_unsigned_int
	.cv_loc	17 4 144 4
	orb	$48, %dil
.Ltmp103:
	.cv_inline_site_id 18 within 17 inlined_at 4 144 4
	.cv_loc	18 4 94 2
	movq	256(%rsi), %rax
	testq	%rsi, %rsi
	je	.LBB8_10
.Ltmp104:
	cmpq	$256, %rax
	jne	.LBB8_10
.Ltmp105:
	leaq	256(%rsi), %rbx
.Ltmp106:
	.p2align	4, 0x90
.LBB8_4:
	.cv_loc	18 4 95 3
	cmpq	$0, 264(%rsi)
	.cv_loc	18 4 99 4
	je	.LBB8_5
.Ltmp107:
	.cv_loc	18 4 98 3
	cmpq	$256, (%rbx)
	.cv_loc	18 4 99 4
	jne	.LBB8_8
.Ltmp108:
.LBB8_7:
	movq	264(%rsi), %rsi
.Ltmp109:
.LBB8_8:
	.cv_loc	18 4 94 2
	movq	256(%rsi), %rax
	testq	%rsi, %rsi
	je	.LBB8_10
.Ltmp110:
	leaq	256(%rsi), %rbx
	cmpq	$256, %rax
	je	.LBB8_4
	jmp	.LBB8_10
.Ltmp111:
	.p2align	4, 0x90
.LBB8_5:
	.cv_inline_site_id 19 within 18 inlined_at 4 96 4
	.cv_loc	19 3 14 2
	movl	$272, %ecx
	vzeroupper
	callq	malloc
.Ltmp112:
	vxorps	%xmm0, %xmm0, %xmm0
	.cv_loc	19 3 15 8
	vmovups	%ymm0, (%rax)
	vmovups	%ymm0, 32(%rax)
	vmovups	%ymm0, 64(%rax)
	vmovups	%ymm0, 96(%rax)
	vmovups	%ymm0, 128(%rax)
	vmovups	%ymm0, 160(%rax)
	vmovups	%ymm0, 192(%rax)
	vmovups	%ymm0, 224(%rax)
	vmovups	%ymm0, 240(%rax)
.Ltmp113:
	.cv_loc	18 4 96 4
	movq	%rax, 264(%rsi)
	.cv_loc	18 4 98 3
	cmpq	$256, (%rbx)
	.cv_loc	18 4 99 4
	je	.LBB8_7
	jmp	.LBB8_8
.Ltmp114:
.LBB8_10:
	.cv_loc	18 4 101 2
	movb	%dil, (%rsi,%rax)
	.cv_loc	18 4 102 2
	incq	256(%rsi)
.Ltmp115:
.LBB8_11:
	.cv_loc	17 4 146 1
	addq	$32, %rsp
	popq	%rbx
	popq	%rdi
	popq	%rsi
	vzeroupper
	retq
.Ltmp116:
.Lfunc_end8:

	.def	int_to_str;
	.scl	2;
	.type	32;
	.endef
	.globl	int_to_str
	.p2align	4, 0x90
int_to_str:
.Lfunc_begin9:
	.cv_func_id 20
	.cv_loc	20 4 149 0
	pushq	%r15
	pushq	%r14
	pushq	%rsi
	pushq	%rdi
	pushq	%rbx
	subq	$32, %rsp
	movq	%r8, %r15
.Ltmp117:
	.cv_loc	20 4 150 2
	testq	%rdx, %rdx
	.cv_loc	20 4 157 2
	je	.LBB9_15
.Ltmp118:
	movq	%rdx, %r14
	xorl	%ebx, %ebx
	movabsq	$7378697629483820647, %rdi
	movq	%rdx, %rcx
.Ltmp119:
	.p2align	4, 0x90
.LBB9_2:
	.cv_loc	20 4 158 3
	movq	%rcx, %rax
	imulq	%rdi
	movq	%rdx, %rax
	shrq	$63, %rax
	sarq	$2, %rdx
	addq	%rax, %rdx
.Ltmp120:
	.cv_loc	20 4 157 2
	addq	$9, %rcx
	incq	%rbx
.Ltmp121:
	cmpq	$18, %rcx
	movq	%rdx, %rcx
	ja	.LBB9_2
.Ltmp122:
	.cv_loc	20 4 160 2
	testq	%r14, %r14
	.cv_loc	20 4 166 1
	jns	.LBB9_14
.Ltmp123:
	.cv_inline_site_id 21 within 20 inlined_at 4 161 4
	.cv_loc	21 4 94 2
	movq	256(%r15), %rax
	movq	%r15, %rsi
	testq	%r15, %r15
	je	.LBB9_13
.Ltmp124:
	cmpq	$256, %rax
	jne	.LBB9_13
.Ltmp125:
	leaq	256(%r15), %rdi
	movq	%r15, %rsi
.Ltmp126:
	.p2align	4, 0x90
.LBB9_7:
	.cv_loc	21 4 95 3
	cmpq	$0, 264(%rsi)
	.cv_loc	21 4 99 4
	je	.LBB9_8
.Ltmp127:
	.cv_loc	21 4 98 3
	cmpq	$256, (%rdi)
	.cv_loc	21 4 99 4
	jne	.LBB9_11
.Ltmp128:
.LBB9_10:
	movq	264(%rsi), %rsi
.Ltmp129:
.LBB9_11:
	.cv_loc	21 4 94 2
	movq	256(%rsi), %rax
	testq	%rsi, %rsi
	je	.LBB9_13
.Ltmp130:
	leaq	256(%rsi), %rdi
	cmpq	$256, %rax
	je	.LBB9_7
	jmp	.LBB9_13
.Ltmp131:
	.p2align	4, 0x90
.LBB9_8:
	.cv_inline_site_id 22 within 21 inlined_at 4 96 4
	.cv_loc	22 3 14 2
	movl	$272, %ecx
	vzeroupper
	callq	malloc
.Ltmp132:
	vxorps	%xmm0, %xmm0, %xmm0
	.cv_loc	22 3 15 8
	vmovups	%ymm0, (%rax)
	vmovups	%ymm0, 32(%rax)
	vmovups	%ymm0, 64(%rax)
	vmovups	%ymm0, 96(%rax)
	vmovups	%ymm0, 128(%rax)
	vmovups	%ymm0, 160(%rax)
	vmovups	%ymm0, 192(%rax)
	vmovups	%ymm0, 224(%rax)
	vmovups	%ymm0, 240(%rax)
.Ltmp133:
	.cv_loc	21 4 96 4
	movq	%rax, 264(%rsi)
	.cv_loc	21 4 98 3
	cmpq	$256, (%rdi)
	.cv_loc	21 4 99 4
	je	.LBB9_10
	jmp	.LBB9_11
.Ltmp134:
.LBB9_15:
	.cv_inline_site_id 23 within 20 inlined_at 4 151 4
	.cv_loc	23 4 94 2
	movq	256(%r15), %rax
	testq	%r15, %r15
	je	.LBB9_24
.Ltmp135:
	cmpq	$256, %rax
	jne	.LBB9_24
.Ltmp136:
	leaq	256(%r15), %rsi
.Ltmp137:
	.p2align	4, 0x90
.LBB9_18:
	.cv_loc	23 4 95 3
	cmpq	$0, 264(%r15)
	.cv_loc	23 4 99 4
	je	.LBB9_19
.Ltmp138:
	.cv_loc	23 4 98 3
	cmpq	$256, (%rsi)
	.cv_loc	23 4 99 4
	jne	.LBB9_22
.Ltmp139:
.LBB9_21:
	movq	264(%r15), %r15
.Ltmp140:
.LBB9_22:
	.cv_loc	23 4 94 2
	movq	256(%r15), %rax
	testq	%r15, %r15
	je	.LBB9_24
.Ltmp141:
	leaq	256(%r15), %rsi
	cmpq	$256, %rax
	je	.LBB9_18
	jmp	.LBB9_24
.Ltmp142:
	.p2align	4, 0x90
.LBB9_19:
	.cv_inline_site_id 24 within 23 inlined_at 4 96 4
	.cv_loc	24 3 14 2
	movl	$272, %ecx
	vzeroupper
	callq	malloc
.Ltmp143:
	vxorps	%xmm0, %xmm0, %xmm0
	.cv_loc	24 3 15 8
	vmovups	%ymm0, (%rax)
	vmovups	%ymm0, 32(%rax)
	vmovups	%ymm0, 64(%rax)
	vmovups	%ymm0, 96(%rax)
	vmovups	%ymm0, 128(%rax)
	vmovups	%ymm0, 160(%rax)
	vmovups	%ymm0, 192(%rax)
	vmovups	%ymm0, 224(%rax)
	vmovups	%ymm0, 240(%rax)
.Ltmp144:
	.cv_loc	23 4 96 4
	movq	%rax, 264(%r15)
	.cv_loc	23 4 98 3
	cmpq	$256, (%rsi)
	.cv_loc	23 4 99 4
	je	.LBB9_21
	jmp	.LBB9_22
.Ltmp145:
.LBB9_24:
	.cv_loc	23 4 101 2
	movb	$48, (%r15,%rax)
	.cv_loc	23 4 102 2
	incq	256(%r15)
	jmp	.LBB9_25
.Ltmp146:
.LBB9_13:
	.cv_loc	21 4 101 2
	incq	%rbx
.Ltmp147:
	movb	$45, (%rsi,%rax)
	.cv_loc	21 4 102 2
	incq	256(%rsi)
.Ltmp148:
	.cv_loc	20 4 162 3
	negq	%r14
.Ltmp149:
.LBB9_14:
	.cv_loc	20 4 165 20
	movq	%r14, %rdx
	movq	%rbx, %r8
	movq	%r15, %r9
	vzeroupper
	callq	build_unsigned_int
.Ltmp150:
.LBB9_25:
	addq	$32, %rsp
	popq	%rbx
	popq	%rdi
	popq	%rsi
	popq	%r14
	popq	%r15
	vzeroupper
	retq
.Ltmp151:
.Lfunc_end9:

	.def	float_to_str;
	.scl	2;
	.type	32;
	.endef
	.globl	__xmm@80000000000000008000000000000000
	.section	.rdata,"dr",discard,__xmm@80000000000000008000000000000000
	.p2align	4
__xmm@80000000000000008000000000000000:
	.quad	0x8000000000000000
	.quad	0x8000000000000000
	.globl	__real@43e0000000000000
	.section	.rdata,"dr",discard,__real@43e0000000000000
	.p2align	3
__real@43e0000000000000:
	.quad	0x43e0000000000000
	.globl	__xmm@00000000000000004530000043300000
	.section	.rdata,"dr",discard,__xmm@00000000000000004530000043300000
	.p2align	4
__xmm@00000000000000004530000043300000:
	.long	1127219200
	.long	1160773632
	.long	0
	.long	0
	.globl	__xmm@45300000000000004330000000000000
	.section	.rdata,"dr",discard,__xmm@45300000000000004330000000000000
	.p2align	4
__xmm@45300000000000004330000000000000:
	.quad	0x4330000000000000
	.quad	0x4530000000000000
	.globl	__real@4024000000000000
	.section	.rdata,"dr",discard,__real@4024000000000000
	.p2align	3
__real@4024000000000000:
	.quad	0x4024000000000000
	.text
	.globl	float_to_str
	.p2align	4, 0x90
float_to_str:
.Lfunc_begin10:
	.cv_func_id 25
	.cv_loc	25 4 169 0
	pushq	%r15
	pushq	%r14
	pushq	%r12
	pushq	%rsi
	pushq	%rdi
	pushq	%rbx
	subq	$72, %rsp
	vmovaps	%xmm7, 48(%rsp)
	vmovaps	%xmm6, 32(%rsp)
	movq	%r8, %r15
	vmovapd	%xmm1, %xmm6
.Ltmp152:
	vxorpd	%xmm0, %xmm0, %xmm0
.Ltmp153:
	.cv_loc	25 4 170 2
	vucomisd	%xmm0, %xmm1
	.cv_loc	25 4 185 2
	jae	.LBB10_11
.Ltmp154:
	.cv_inline_site_id 26 within 25 inlined_at 4 171 4
	.cv_loc	26 4 94 2
	movq	256(%r15), %rax
	movq	%r15, %rdi
	testq	%r15, %r15
	je	.LBB10_10
.Ltmp155:
	cmpq	$256, %rax
	jne	.LBB10_10
.Ltmp156:
	leaq	256(%r15), %rsi
	movq	%r15, %rdi
.Ltmp157:
	.p2align	4, 0x90
.LBB10_4:
	.cv_loc	26 4 95 3
	cmpq	$0, 264(%rdi)
	.cv_loc	26 4 99 4
	je	.LBB10_5
.Ltmp158:
	.cv_loc	26 4 98 3
	cmpq	$256, (%rsi)
	.cv_loc	26 4 99 4
	jne	.LBB10_8
.Ltmp159:
.LBB10_7:
	movq	264(%rdi), %rdi
.Ltmp160:
.LBB10_8:
	.cv_loc	26 4 94 2
	movq	256(%rdi), %rax
	testq	%rdi, %rdi
	je	.LBB10_10
.Ltmp161:
	leaq	256(%rdi), %rsi
	cmpq	$256, %rax
	je	.LBB10_4
	jmp	.LBB10_10
.Ltmp162:
	.p2align	4, 0x90
.LBB10_5:
	.cv_inline_site_id 27 within 26 inlined_at 4 96 4
	.cv_loc	27 3 14 2
	movl	$272, %ecx
	vzeroupper
	callq	malloc
.Ltmp163:
	vxorpd	%xmm0, %xmm0, %xmm0
	.cv_loc	27 3 15 8
	vmovupd	%ymm0, (%rax)
	vmovupd	%ymm0, 32(%rax)
	vmovupd	%ymm0, 64(%rax)
	vmovupd	%ymm0, 96(%rax)
	vmovupd	%ymm0, 128(%rax)
	vmovupd	%ymm0, 160(%rax)
	vmovupd	%ymm0, 192(%rax)
	vmovupd	%ymm0, 224(%rax)
	vmovupd	%ymm0, 240(%rax)
.Ltmp164:
	.cv_loc	26 4 96 4
	movq	%rax, 264(%rdi)
	.cv_loc	26 4 98 3
	cmpq	$256, (%rsi)
	.cv_loc	26 4 99 4
	je	.LBB10_7
	jmp	.LBB10_8
.Ltmp165:
.LBB10_10:
	.cv_loc	26 4 101 2
	movb	$45, (%rdi,%rax)
	.cv_loc	26 4 102 2
	incq	256(%rdi)
.Ltmp166:
	.cv_loc	25 4 172 3
	vxorpd	__xmm@80000000000000008000000000000000(%rip), %xmm6, %xmm6
.Ltmp167:
.LBB10_11:
	.cv_loc	25 4 175 2
	vcvttsd2si	%xmm6, %rax
	movq	%rax, %rcx
	vsubsd	__real@43e0000000000000(%rip), %xmm6, %xmm0
	sarq	$63, %rcx
	vcvttsd2si	%xmm0, %rdx
	andq	%rcx, %rdx
	orq	%rax, %rdx
.Ltmp168:
	.cv_loc	25 4 176 2
	vmovq	%rdx, %xmm0
	vpunpckldq	__xmm@00000000000000004530000043300000(%rip), %xmm0, %xmm0
	vsubpd	__xmm@45300000000000004330000000000000(%rip), %xmm0, %xmm0
	vpermilpd	$1, %xmm0, %xmm1
	vaddsd	%xmm0, %xmm1, %xmm7
.Ltmp169:
	.cv_loc	25 4 185 2
	je	.LBB10_12
.Ltmp170:
	.cv_loc	25 4 181 17
	movq	%r15, %r8
	vzeroupper
	callq	int_to_str
	jmp	.LBB10_22
.Ltmp171:
.LBB10_12:
	.cv_inline_site_id 28 within 25 inlined_at 4 179 4
	.cv_loc	28 4 94 2
	movq	256(%r15), %rax
	movq	%r15, %rdi
	testq	%r15, %r15
	je	.LBB10_21
.Ltmp172:
	cmpq	$256, %rax
	jne	.LBB10_21
.Ltmp173:
	leaq	256(%r15), %rsi
	movq	%r15, %rdi
.Ltmp174:
	.p2align	4, 0x90
.LBB10_15:
	.cv_loc	28 4 95 3
	cmpq	$0, 264(%rdi)
	.cv_loc	28 4 99 4
	je	.LBB10_16
.Ltmp175:
	.cv_loc	28 4 98 3
	cmpq	$256, (%rsi)
	.cv_loc	28 4 99 4
	jne	.LBB10_19
.Ltmp176:
.LBB10_18:
	movq	264(%rdi), %rdi
.Ltmp177:
.LBB10_19:
	.cv_loc	28 4 94 2
	movq	256(%rdi), %rax
	testq	%rdi, %rdi
	je	.LBB10_21
.Ltmp178:
	leaq	256(%rdi), %rsi
	cmpq	$256, %rax
	je	.LBB10_15
	jmp	.LBB10_21
.Ltmp179:
	.p2align	4, 0x90
.LBB10_16:
	.cv_inline_site_id 29 within 28 inlined_at 4 96 4
	.cv_loc	29 3 14 2
	movl	$272, %ecx
	vzeroupper
	callq	malloc
.Ltmp180:
	vxorpd	%xmm0, %xmm0, %xmm0
	.cv_loc	29 3 15 8
	vmovupd	%ymm0, (%rax)
	vmovupd	%ymm0, 32(%rax)
	vmovupd	%ymm0, 64(%rax)
	vmovupd	%ymm0, 96(%rax)
	vmovupd	%ymm0, 128(%rax)
	vmovupd	%ymm0, 160(%rax)
	vmovupd	%ymm0, 192(%rax)
	vmovupd	%ymm0, 224(%rax)
	vmovupd	%ymm0, 240(%rax)
.Ltmp181:
	.cv_loc	28 4 96 4
	movq	%rax, 264(%rdi)
	.cv_loc	28 4 98 3
	cmpq	$256, (%rsi)
	.cv_loc	28 4 99 4
	je	.LBB10_18
	jmp	.LBB10_19
.Ltmp182:
.LBB10_21:
	.cv_loc	28 4 101 2
	movb	$48, (%rdi,%rax)
	.cv_loc	28 4 102 2
	incq	256(%rdi)
.Ltmp183:
.LBB10_22:
	.cv_inline_site_id 30 within 25 inlined_at 4 182 3
	.cv_loc	30 4 94 2
	vsubsd	%xmm7, %xmm6, %xmm6
.Ltmp184:
	leaq	256(%r15), %r14
	movq	256(%r15), %rax
	movq	%r15, %rdi
	testq	%r15, %r15
	je	.LBB10_31
.Ltmp185:
	cmpq	$256, %rax
	jne	.LBB10_31
.Ltmp186:
	movq	%r14, %rsi
	movq	%r15, %rdi
.Ltmp187:
	.p2align	4, 0x90
.LBB10_25:
	.cv_loc	30 4 95 3
	cmpq	$0, 264(%rdi)
	.cv_loc	30 4 99 4
	je	.LBB10_26
.Ltmp188:
	.cv_loc	30 4 98 3
	cmpq	$256, (%rsi)
	.cv_loc	30 4 99 4
	jne	.LBB10_29
.Ltmp189:
.LBB10_28:
	movq	264(%rdi), %rdi
.Ltmp190:
.LBB10_29:
	.cv_loc	30 4 94 2
	movq	256(%rdi), %rax
	testq	%rdi, %rdi
	je	.LBB10_31
.Ltmp191:
	leaq	256(%rdi), %rsi
	cmpq	$256, %rax
	je	.LBB10_25
	jmp	.LBB10_31
.Ltmp192:
	.p2align	4, 0x90
.LBB10_26:
	.cv_inline_site_id 31 within 30 inlined_at 4 96 4
	.cv_loc	31 3 14 2
	movl	$272, %ecx
	vzeroupper
	callq	malloc
.Ltmp193:
	vxorpd	%xmm0, %xmm0, %xmm0
	.cv_loc	31 3 15 8
	vmovupd	%ymm0, (%rax)
	vmovupd	%ymm0, 32(%rax)
	vmovupd	%ymm0, 64(%rax)
	vmovupd	%ymm0, 96(%rax)
	vmovupd	%ymm0, 128(%rax)
	vmovupd	%ymm0, 160(%rax)
	vmovupd	%ymm0, 192(%rax)
	vmovupd	%ymm0, 224(%rax)
	vmovupd	%ymm0, 240(%rax)
.Ltmp194:
	.cv_loc	30 4 96 4
	movq	%rax, 264(%rdi)
	.cv_loc	30 4 98 3
	cmpq	$256, (%rsi)
	.cv_loc	30 4 99 4
	je	.LBB10_28
	jmp	.LBB10_29
.Ltmp195:
.LBB10_31:
	.cv_loc	30 4 101 2
	movb	$46, (%rdi,%rax)
	.cv_loc	30 4 102 2
	incq	256(%rdi)
.Ltmp196:
	.cv_loc	25 4 185 2
	vcvttsd2si	%xmm6, %rax
	movq	%rax, %rcx
	vsubsd	__real@43e0000000000000(%rip), %xmm6, %xmm0
	vcvttsd2si	%xmm0, %rdx
	sarq	$63, %rcx
	andq	%rcx, %rdx
	orq	%rax, %rdx
	vmovq	%rdx, %xmm0
	vpunpckldq	__xmm@00000000000000004530000043300000(%rip), %xmm0, %xmm0
	vsubpd	__xmm@45300000000000004330000000000000(%rip), %xmm0, %xmm0
	vpermilpd	$1, %xmm0, %xmm1
	vaddsd	%xmm0, %xmm1, %xmm0
	xorl	%r12d, %r12d
	vucomisd	%xmm0, %xmm6
	jne	.LBB10_45
	jnp	.LBB10_32
.Ltmp197:
.LBB10_45:
	vmovsd	__real@4024000000000000(%rip), %xmm0
	vmovsd	__real@43e0000000000000(%rip), %xmm1
	vmovdqa	__xmm@00000000000000004530000043300000(%rip), %xmm2
	vmovapd	__xmm@45300000000000004330000000000000(%rip), %xmm3
.Ltmp198:
	.p2align	4, 0x90
.LBB10_46:
	.cv_loc	25 4 186 3
	vmulsd	%xmm0, %xmm6, %xmm6
.Ltmp199:
	.cv_loc	25 4 187 3
	vcvttsd2si	%xmm6, %rax
	movq	%rax, %rcx
	sarq	$63, %rcx
	vsubsd	%xmm1, %xmm6, %xmm4
	vcvttsd2si	%xmm4, %rdx
	andq	%rcx, %rdx
	orq	%rax, %rdx
	.cv_loc	25 4 187 20
	cmpq	$1, %rdx
	adcq	$0, %r12
.Ltmp200:
	.cv_loc	25 4 185 2
	vmovq	%rdx, %xmm4
	vpunpckldq	%xmm2, %xmm4, %xmm4
	vsubpd	%xmm3, %xmm4, %xmm4
	vpermilpd	$1, %xmm4, %xmm5
	vaddsd	%xmm4, %xmm5, %xmm4
	vucomisd	%xmm4, %xmm6
	jne	.LBB10_46
	jp	.LBB10_46
.Ltmp201:
.LBB10_32:
	.cv_loc	25 4 190 2
	testq	%r12, %r12
	jle	.LBB10_44
.Ltmp202:
	xorl	%edi, %edi
	jmp	.LBB10_34
.Ltmp203:
	.p2align	4, 0x90
.LBB10_43:
	.cv_inline_site_id 32 within 25 inlined_at 4 191 4
	.cv_loc	32 4 101 2
	movb	$48, (%rsi,%rax)
	.cv_loc	32 4 102 2
	incq	256(%rsi)
.Ltmp204:
	.cv_loc	25 4 191 4
	incq	%rdi
.Ltmp205:
	.cv_loc	25 4 190 2
	cmpq	%r12, %rdi
	jge	.LBB10_44
.Ltmp206:
.LBB10_34:
	.cv_loc	32 4 94 2
	movq	256(%r15), %rax
	movq	%r15, %rsi
.Ltmp207:
	.cv_loc	30 4 94 2
	testq	%r15, %r15
.Ltmp208:
	.cv_loc	32 4 94 2
	je	.LBB10_43
.Ltmp209:
	cmpq	$256, %rax
	jne	.LBB10_43
.Ltmp210:
	movq	%r14, %rbx
	movq	%r15, %rsi
.Ltmp211:
	.p2align	4, 0x90
.LBB10_37:
	.cv_loc	32 4 95 3
	cmpq	$0, 264(%rsi)
	.cv_loc	32 4 99 4
	je	.LBB10_38
.Ltmp212:
	.cv_loc	32 4 98 3
	cmpq	$256, (%rbx)
	.cv_loc	32 4 99 4
	jne	.LBB10_41
.Ltmp213:
.LBB10_40:
	movq	264(%rsi), %rsi
.Ltmp214:
.LBB10_41:
	.cv_loc	32 4 94 2
	movq	256(%rsi), %rax
	testq	%rsi, %rsi
	je	.LBB10_43
.Ltmp215:
	leaq	256(%rsi), %rbx
	cmpq	$256, %rax
	je	.LBB10_37
	jmp	.LBB10_43
.Ltmp216:
	.p2align	4, 0x90
.LBB10_38:
	.cv_inline_site_id 33 within 32 inlined_at 4 96 4
	.cv_loc	33 3 14 2
	movl	$272, %ecx
	vzeroupper
	callq	malloc
.Ltmp217:
	vxorpd	%xmm0, %xmm0, %xmm0
	.cv_loc	33 3 15 8
	vmovupd	%ymm0, (%rax)
	vmovupd	%ymm0, 32(%rax)
	vmovupd	%ymm0, 64(%rax)
	vmovupd	%ymm0, 96(%rax)
	vmovupd	%ymm0, 128(%rax)
	vmovupd	%ymm0, 160(%rax)
	vmovupd	%ymm0, 192(%rax)
	vmovupd	%ymm0, 224(%rax)
	vmovupd	%ymm0, 240(%rax)
.Ltmp218:
	.cv_loc	32 4 96 4
	movq	%rax, 264(%rsi)
	.cv_loc	32 4 98 3
	cmpq	$256, (%rbx)
	.cv_loc	32 4 99 4
	je	.LBB10_40
	jmp	.LBB10_41
.Ltmp219:
.LBB10_44:
	.cv_loc	25 4 194 12
	vcvttsd2si	%xmm6, %rdx
	movq	%r15, %r8
	vzeroupper
	callq	int_to_str
	vmovaps	32(%rsp), %xmm6
	vmovaps	48(%rsp), %xmm7
	.cv_loc	25 4 195 1
	addq	$72, %rsp
	popq	%rbx
	popq	%rdi
	popq	%rsi
	popq	%r12
	popq	%r14
	popq	%r15
	retq
.Ltmp220:
.Lfunc_end10:

	.def	parse_format;
	.scl	2;
	.type	32;
	.endef
	.globl	parse_format
	.p2align	4, 0x90
parse_format:
.Lfunc_begin11:
	.cv_func_id 34
	.cv_loc	34 4 198 0
	pushq	%rbp
	pushq	%r15
	pushq	%r14
	pushq	%r13
	pushq	%r12
	pushq	%rsi
	pushq	%rdi
	pushq	%rbx
	subq	$696, %rsp
	leaq	128(%rsp), %rbp
	andq	$-256, %rsp
	movq	%r9, %r12
	movq	%r8, %rsi
	movq	%rdx, 232(%rsp)
	movq	%rcx, 224(%rsp)
.Ltmp221:
	.cv_loc	34 4 199 2
	vxorps	%xmm0, %xmm0, %xmm0
	vmovups	%ymm0, 496(%rsp)
	vmovaps	%ymm0, 480(%rsp)
	vmovaps	%ymm0, 448(%rsp)
	vmovaps	%ymm0, 416(%rsp)
	vmovaps	%ymm0, 384(%rsp)
	vmovaps	%ymm0, 352(%rsp)
	vmovaps	%ymm0, 320(%rsp)
	vmovaps	%ymm0, 288(%rsp)
	vmovaps	%ymm0, 256(%rsp)
	leaq	256(%rsp), %rdi
	movq	%rdi, 248(%rsp)
	leaq	.L__unnamed_2(%rip), %rdx
	leaq	248(%rsp), %rcx
	vzeroupper
	callq	init_builder
.Ltmp222:
	movq	%rsi, 240(%rsp)
.Ltmp223:
	.cv_loc	34 4 201 2
	testq	%rsi, %rsi
	jle	.LBB11_7
.Ltmp224:
	xorl	%r14d, %r14d
	xorl	%r13d, %r13d
	jmp	.LBB11_2
.Ltmp225:
	.p2align	4, 0x90
.LBB11_68:
	.cv_inline_site_id 35 within 34 inlined_at 4 231 4
	.cv_loc	35 4 101 2
	movb	%r15b, (%rsi,%rax)
	.cv_loc	35 4 102 2
	incq	256(%rsi)
.Ltmp226:
.LBB11_69:
	.cv_loc	34 4 231 4
	incq	%r13
.Ltmp227:
	.cv_loc	34 4 201 2
	cmpq	240(%rsp), %r13
	jge	.LBB11_7
.Ltmp228:
.LBB11_2:
	.cv_inline_site_id 36 within 34 inlined_at 4 202 3
	.cv_loc	36 4 61 5
	movq	232(%rsp), %rax
.Ltmp229:
	movb	(%rax,%r13), %r15b
.Ltmp230:
	.cv_loc	34 4 202 3
	cmpb	$37, %r15b
	.cv_loc	34 4 231 4
	jne	.LBB11_60
.Ltmp231:
	.cv_loc	34 4 203 4
	movq	%r14, %rax
	shlq	$4, %rax
	movq	(%r12,%rax), %rcx
	movq	8(%r12,%rax), %rax
.Ltmp232:
	.cv_loc	34 4 204 4
	incq	%r14
.Ltmp233:
	.cv_loc	34 4 205 4
	movl	(%rcx), %edx
.Ltmp234:
	.cv_loc	34 4 228 5
	cmpl	$3, %edx
	je	.LBB11_41
.Ltmp235:
	cmpl	$4, %edx
	jne	.LBB11_51
.Ltmp236:
	.cv_loc	34 4 221 5
	cmpl	$9, 4(%rcx)
	.cv_loc	34 4 226 17
	jne	.LBB11_49
.Ltmp237:
	.cv_loc	34 4 222 6
	vmovss	(%rax), %xmm0
	vcvtss2sd	%xmm0, %xmm0, %xmm1
.Ltmp238:
	jmp	.LBB11_50
.Ltmp239:
	.p2align	4, 0x90
.LBB11_60:
	.cv_loc	35 4 94 2
	movq	512(%rsp), %rax
	leaq	256(%rsp), %rsi
	cmpq	$256, %rax
	jne	.LBB11_68
.Ltmp240:
	leaq	512(%rsp), %rbx
	leaq	256(%rsp), %rsi
.Ltmp241:
	.p2align	4, 0x90
.LBB11_62:
	.cv_loc	35 4 95 3
	cmpq	$0, 264(%rsi)
	.cv_loc	35 4 99 4
	je	.LBB11_63
.Ltmp242:
	.cv_loc	35 4 98 3
	cmpq	$256, (%rbx)
	.cv_loc	35 4 99 4
	jne	.LBB11_66
.Ltmp243:
.LBB11_65:
	movq	264(%rsi), %rsi
.Ltmp244:
.LBB11_66:
	.cv_loc	35 4 94 2
	movq	256(%rsi), %rax
	testq	%rsi, %rsi
	je	.LBB11_68
.Ltmp245:
	leaq	256(%rsi), %rbx
	cmpq	$256, %rax
	je	.LBB11_62
	jmp	.LBB11_68
.Ltmp246:
	.p2align	4, 0x90
.LBB11_63:
	.cv_inline_site_id 37 within 35 inlined_at 4 96 4
	.cv_loc	37 3 14 2
	movl	$272, %ecx
	vzeroupper
	callq	malloc
.Ltmp247:
	.cv_loc	34 4 199 2
	vxorps	%xmm0, %xmm0, %xmm0
.Ltmp248:
	.cv_loc	37 3 15 8
	vmovups	%ymm0, (%rax)
	vmovups	%ymm0, 32(%rax)
	vmovups	%ymm0, 64(%rax)
	vmovups	%ymm0, 96(%rax)
	vmovups	%ymm0, 128(%rax)
	vmovups	%ymm0, 160(%rax)
	vmovups	%ymm0, 192(%rax)
	vmovups	%ymm0, 224(%rax)
	vmovups	%ymm0, 240(%rax)
.Ltmp249:
	.cv_loc	35 4 96 4
	movq	%rax, 264(%rsi)
	.cv_loc	35 4 98 3
	cmpq	$256, (%rbx)
	.cv_loc	35 4 99 4
	je	.LBB11_65
	jmp	.LBB11_66
.Ltmp250:
.LBB11_41:
	.cv_loc	34 4 208 5
	movl	4(%rcx), %ecx
.Ltmp251:
	.cv_loc	34 4 209 5
	andl	$-5, %ecx
	.cv_loc	34 4 217 15
	cmpl	$3, %ecx
	je	.LBB11_47
.Ltmp252:
	cmpl	$2, %ecx
	je	.LBB11_46
.Ltmp253:
	cmpl	$1, %ecx
	jne	.LBB11_48
.Ltmp254:
	.cv_loc	34 4 210 6
	movsbq	(%rax), %rdx
.Ltmp255:
	jmp	.LBB11_45
.Ltmp256:
.LBB11_51:
	.cv_inline_site_id 38 within 34 inlined_at 4 228 5
	.cv_loc	38 4 94 2
	movq	%r12, %rbx
.Ltmp257:
	movq	512(%rsp), %rax
	leaq	256(%rsp), %r12
	cmpq	$256, %rax
	jne	.LBB11_59
.Ltmp258:
	leaq	512(%rsp), %rsi
	leaq	256(%rsp), %r12
.Ltmp259:
	.p2align	4, 0x90
.LBB11_53:
	.cv_loc	38 4 95 3
	cmpq	$0, 264(%r12)
	.cv_loc	38 4 99 4
	je	.LBB11_54
.Ltmp260:
	.cv_loc	38 4 98 3
	cmpq	$256, (%rsi)
	.cv_loc	38 4 99 4
	jne	.LBB11_57
.Ltmp261:
.LBB11_56:
	movq	264(%r12), %r12
.Ltmp262:
.LBB11_57:
	.cv_loc	38 4 94 2
	movq	256(%r12), %rax
	testq	%r12, %r12
	je	.LBB11_59
.Ltmp263:
	leaq	256(%r12), %rsi
	cmpq	$256, %rax
	je	.LBB11_53
	jmp	.LBB11_59
.Ltmp264:
	.p2align	4, 0x90
.LBB11_54:
	.cv_inline_site_id 39 within 38 inlined_at 4 96 4
	.cv_loc	39 3 14 2
	movl	$272, %ecx
	vzeroupper
	callq	malloc
.Ltmp265:
	.cv_loc	34 4 199 2
	vxorps	%xmm0, %xmm0, %xmm0
.Ltmp266:
	.cv_loc	39 3 15 8
	vmovups	%ymm0, (%rax)
	vmovups	%ymm0, 32(%rax)
	vmovups	%ymm0, 64(%rax)
	vmovups	%ymm0, 96(%rax)
	vmovups	%ymm0, 128(%rax)
	vmovups	%ymm0, 160(%rax)
	vmovups	%ymm0, 192(%rax)
	vmovups	%ymm0, 224(%rax)
	vmovups	%ymm0, 240(%rax)
.Ltmp267:
	.cv_loc	38 4 96 4
	movq	%rax, 264(%r12)
	.cv_loc	38 4 98 3
	cmpq	$256, (%rsi)
	.cv_loc	38 4 99 4
	je	.LBB11_56
	jmp	.LBB11_57
.Ltmp268:
.LBB11_59:
	.cv_loc	38 4 101 2
	movb	%r15b, (%r12,%rax)
	.cv_loc	38 4 102 2
	incq	256(%r12)
	movq	%rbx, %r12
	jmp	.LBB11_69
.Ltmp269:
.LBB11_49:
	.cv_loc	34 4 224 6
	vmovsd	(%rax), %xmm1
.Ltmp270:
.LBB11_50:
	.cv_loc	34 4 226 17
	leaq	256(%rsp), %r8
	vzeroupper
.Ltmp271:
	callq	float_to_str
.Ltmp272:
	jmp	.LBB11_69
.Ltmp273:
.LBB11_47:
	.cv_loc	34 4 214 6
	movslq	(%rax), %rdx
.Ltmp274:
	jmp	.LBB11_45
.Ltmp275:
.LBB11_46:
	.cv_loc	34 4 212 6
	movswq	(%rax), %rdx
.Ltmp276:
	jmp	.LBB11_45
.Ltmp277:
.LBB11_48:
	.cv_loc	34 4 216 6
	movq	(%rax), %rdx
.Ltmp278:
.LBB11_45:
	.cv_loc	34 4 217 15
	leaq	256(%rsp), %r8
	vzeroupper
	callq	int_to_str
.Ltmp279:
	jmp	.LBB11_69
.Ltmp280:
.LBB11_7:
	.cv_inline_site_id 40 within 34 inlined_at 4 234 2
	.cv_loc	40 4 94 2
	movq	512(%rsp), %rax
	movq	%rdi, %rsi
	cmpq	$256, %rax
	jne	.LBB11_15
.Ltmp281:
	leaq	512(%rsp), %rbx
	leaq	256(%rsp), %rsi
.Ltmp282:
	.p2align	4, 0x90
.LBB11_9:
	.cv_loc	40 4 95 3
	cmpq	$0, 264(%rsi)
	.cv_loc	40 4 99 4
	je	.LBB11_10
.Ltmp283:
	.cv_loc	40 4 98 3
	cmpq	$256, (%rbx)
	.cv_loc	40 4 99 4
	jne	.LBB11_13
.Ltmp284:
.LBB11_12:
	movq	264(%rsi), %rsi
.Ltmp285:
.LBB11_13:
	.cv_loc	40 4 94 2
	movq	256(%rsi), %rax
	testq	%rsi, %rsi
	je	.LBB11_15
.Ltmp286:
	leaq	256(%rsi), %rbx
	cmpq	$256, %rax
	je	.LBB11_9
	jmp	.LBB11_15
.Ltmp287:
	.p2align	4, 0x90
.LBB11_10:
	.cv_inline_site_id 41 within 40 inlined_at 4 96 4
	.cv_loc	41 3 14 2
	movl	$272, %ecx
	vzeroupper
	callq	malloc
.Ltmp288:
	vxorps	%xmm0, %xmm0, %xmm0
	.cv_loc	41 3 15 8
	vmovups	%ymm0, (%rax)
	vmovups	%ymm0, 32(%rax)
	vmovups	%ymm0, 64(%rax)
	vmovups	%ymm0, 96(%rax)
	vmovups	%ymm0, 128(%rax)
	vmovups	%ymm0, 160(%rax)
	vmovups	%ymm0, 192(%rax)
	vmovups	%ymm0, 224(%rax)
	vmovups	%ymm0, 240(%rax)
.Ltmp289:
	.cv_loc	40 4 96 4
	movq	%rax, 264(%rsi)
	.cv_loc	40 4 98 3
	cmpq	$256, (%rbx)
	.cv_loc	40 4 99 4
	je	.LBB11_12
	jmp	.LBB11_13
.Ltmp290:
.LBB11_15:
	.cv_loc	40 4 101 2
	movb	$10, (%rsi,%rax)
	.cv_loc	40 4 102 2
	incq	256(%rsi)
.Ltmp291:
	.cv_inline_site_id 42 within 34 inlined_at 4 235 2
	.cv_loc	42 4 22 2
	movq	520(%rsp), %rax
	testq	%rax, %rax
	je	.LBB11_16
.Ltmp292:
	leaq	256(%rsp), %rcx
	xorl	%r15d, %r15d
.Ltmp293:
	.p2align	4, 0x90
.LBB11_18:
	.cv_loc	42 4 23 3
	addq	256(%rcx), %r15
.Ltmp294:
	movq	%rax, %rdi
	.cv_loc	42 4 22 2
	movq	264(%rax), %rax
.Ltmp295:
	movq	%rdi, %rcx
	testq	%rax, %rax
	jne	.LBB11_18
	jmp	.LBB11_19
.Ltmp296:
.LBB11_16:
	xorl	%r15d, %r15d
.Ltmp297:
.LBB11_19:
	.cv_loc	42 4 26 2
	addq	256(%rdi), %r15
.Ltmp298:
	.cv_inline_site_id 43 within 42 inlined_at 4 27 2
	.cv_loc	43 3 14 2
	movq	%r15, %rcx
	vzeroupper
	callq	malloc
	movq	%rax, %r14
.Ltmp299:
	xorl	%r12d, %r12d
	.cv_loc	43 3 15 8
	movq	%rax, %rcx
	xorl	%edx, %edx
	movq	%r15, %r8
	callq	memset
.Ltmp300:
	.cv_loc	42 4 31 2
	cmpq	$0, 264(%rdi)
	je	.LBB11_31
.Ltmp301:
	leaq	264(%rdi), %r8
	xorl	%r12d, %r12d
	movq	%r14, %rax
	jmp	.LBB11_21
.Ltmp302:
	.p2align	4, 0x90
.LBB11_29:
	.cv_loc	42 4 33 3
	movq	(%r8), %rdi
.Ltmp303:
	.cv_loc	42 4 34 3
	incq	%r12
.Ltmp304:
	.cv_loc	42 4 31 2
	leaq	264(%rdi), %r8
	addq	$256, %rax
	cmpq	$0, 264(%rdi)
	je	.LBB11_30
.Ltmp305:
.LBB11_21:
	.cv_loc	42 4 32 7
	movq	256(%rdi), %rsi
.Ltmp306:
	.cv_inline_site_id 44 within 42 inlined_at 4 32 7
	.cv_loc	44 4 265 2
	testq	%rsi, %rsi
	jle	.LBB11_29
.Ltmp307:
	cmpq	$4, %rsi
	jb	.LBB11_23
.Ltmp308:
	movq	%r12, %rcx
	shlq	$8, %rcx
	addq	%r14, %rcx
.Ltmp309:
	subq	%rdi, %rcx
	movl	$0, %edx
	cmpq	$4, %rcx
	jb	.LBB11_28
.Ltmp310:
	movq	%rsi, %rdx
	andq	$-4, %rdx
	xorl	%ecx, %ecx
.Ltmp311:
	.p2align	4, 0x90
.LBB11_26:
	.cv_loc	44 4 267 3
	movl	(%rdi,%rcx), %ebx
	movl	%ebx, (%rax,%rcx)
	addq	$4, %rcx
	cmpq	%rcx, %rdx
	jne	.LBB11_26
.Ltmp312:
	.cv_loc	44 4 265 2
	cmpq	%rdx, %rsi
	jne	.LBB11_28
	jmp	.LBB11_29
.Ltmp313:
.LBB11_23:
	xorl	%edx, %edx
.Ltmp314:
	.p2align	4, 0x90
.LBB11_28:
	.cv_loc	44 4 267 3
	movzbl	(%rdi,%rdx), %ecx
	movb	%cl, (%rax,%rdx)
	incq	%rdx
.Ltmp315:
	.cv_loc	44 4 265 2
	cmpq	%rsi, %rdx
	jl	.LBB11_28
	jmp	.LBB11_29
.Ltmp316:
.LBB11_30:
	.cv_loc	42 4 36 6
	shlq	$8, %r12
.Ltmp317:
.LBB11_31:
	movq	256(%rdi), %rax
.Ltmp318:
	.cv_inline_site_id 45 within 42 inlined_at 4 36 6
	.cv_loc	45 4 265 2
	testq	%rax, %rax
	jle	.LBB11_40
.Ltmp319:
	movq	%r14, %rcx
	addq	%r12, %rcx
.Ltmp320:
	cmpq	$8, %rax
	jae	.LBB11_34
.Ltmp321:
	xorl	%edx, %edx
	jmp	.LBB11_39
.Ltmp322:
.LBB11_34:
	movq	%rcx, %rdx
	subq	%rdi, %rdx
	cmpq	$4, %rdx
	jae	.LBB11_36
.Ltmp323:
	xorl	%edx, %edx
	jmp	.LBB11_39
.Ltmp324:
.LBB11_36:
	movq	%rax, %rdx
	andq	$-4, %rdx
	xorl	%ebx, %ebx
.Ltmp325:
	.p2align	4, 0x90
.LBB11_37:
	.cv_loc	45 4 267 3
	movl	(%rdi,%rbx), %esi
	movl	%esi, (%rcx,%rbx)
	addq	$4, %rbx
	cmpq	%rbx, %rdx
	jne	.LBB11_37
.Ltmp326:
	.cv_loc	45 4 265 2
	cmpq	%rdx, %rax
	je	.LBB11_40
.Ltmp327:
	.p2align	4, 0x90
.LBB11_39:
	.cv_loc	45 4 267 3
	movzbl	(%rdi,%rdx), %ebx
	movb	%bl, (%rcx,%rdx)
	incq	%rdx
.Ltmp328:
	.cv_loc	45 4 265 2
	cmpq	%rax, %rdx
	jl	.LBB11_39
.Ltmp329:
.LBB11_40:
	.cv_loc	34 4 236 5
	movq	224(%rsp), %rax
	movq	(%rax), %rax
	movq	%r14, (%rax)
	movq	%r15, 8(%rax)
	leaq	568(%rbp), %rsp
.Ltmp330:
	popq	%rbx
	popq	%rdi
	popq	%rsi
	popq	%r12
	popq	%r13
	popq	%r14
.Ltmp331:
	popq	%r15
.Ltmp332:
	popq	%rbp
	retq
.Ltmp333:
.Lfunc_end11:

	.def	"print!@* u8!@-";
	.scl	2;
	.type	32;
	.endef
	.globl	"print!@* u8!@-"
	.p2align	4, 0x90
"print!@* u8!@-":
.Lfunc_begin12:
	.cv_func_id 46
	.cv_loc	46 4 240 0
.seh_proc "print!@* u8!@-"
	pushq	%rsi
	.seh_pushreg %rsi
	pushq	%rdi
	.seh_pushreg %rdi
	pushq	%rbx
	.seh_pushreg %rbx
	subq	$80, %rsp
	.seh_stackalloc 80
	.seh_endprologue
	movq	%rdx, %rdi
	movq	%r8, 128(%rsp)
	movq	%r9, 136(%rsp)
	movq	$-1, %rsi
.Ltmp334:
	.p2align	4, 0x90
.LBB12_1:
	.cv_inline_site_id 47 within 46 inlined_at 4 241 2
	.cv_inline_site_id 48 within 47 inlined_at 4 123 2
	.cv_loc	48 4 274 2
	cmpb	$0, 1(%rdi,%rsi)
	leaq	1(%rsi), %rsi
.Ltmp335:
	jne	.LBB12_1
.Ltmp336:
	.cv_inline_site_id 49 within 47 inlined_at 4 124 2
	.cv_loc	49 3 14 2
	movq	%rsi, %rcx
	callq	malloc
	movq	%rax, %rbx
.Ltmp337:
	.cv_loc	49 3 15 8
	movq	%rax, %rcx
	xorl	%edx, %edx
	movq	%rsi, %r8
	callq	memset
.Ltmp338:
	.cv_inline_site_id 50 within 47 inlined_at 4 125 6
	.cv_loc	50 4 265 2
	testq	%rsi, %rsi
	jle	.LBB12_4
.Ltmp339:
	.cv_loc	50 4 267 3
	movq	%rbx, %rcx
	movq	%rdi, %rdx
	movq	%rsi, %r8
	callq	memcpy
.Ltmp340:
.LBB12_4:
	.cv_loc	46 4 243 15
	leaq	128(%rsp), %r9
.Ltmp341:
	movq	%r9, 72(%rsp)
	.cv_loc	46 4 244 2
	vxorps	%xmm0, %xmm0, %xmm0
	vmovaps	%xmm0, 48(%rsp)
	leaq	48(%rsp), %rax
	movq	%rax, 64(%rsp)
	leaq	64(%rsp), %rcx
	movq	%rbx, %rdx
	movq	%rsi, %r8
	callq	parse_format
.Ltmp342:
	.cv_file	5 "E:\\C_Projects\\Apocalypse\\Standard\\Windows.apoc"
	.cv_inline_site_id 51 within 46 inlined_at 4 246 2
	.cv_loc	51 5 48 5
	movl	$-11, %ecx
	callq	GetStdHandle
.Ltmp343:
	.cv_loc	46 4 247 12
	movq	48(%rsp), %rdx
	movl	56(%rsp), %r8d
.Ltmp344:
	.cv_inline_site_id 52 within 46 inlined_at 4 247 12
	.cv_loc	52 5 40 2
	movq	$0, 40(%rsp)
.Ltmp345:
	.cv_loc	52 5 41 11
	movq	$0, 32(%rsp)
	leaq	40(%rsp), %r9
	movq	%rax, %rcx
	callq	WriteFile
.Ltmp346:
	.cv_loc	46 4 248 1
	nop
	addq	$80, %rsp
	popq	%rbx
.Ltmp347:
	popq	%rdi
.Ltmp348:
	popq	%rsi
	retq
.Ltmp349:
.Lfunc_end12:
	.seh_endproc

	.def	"print!@string!@-";
	.scl	2;
	.type	32;
	.endef
	.globl	"print!@string!@-"
	.p2align	4, 0x90
"print!@string!@-":
.Lfunc_begin13:
	.cv_func_id 53
	.cv_loc	53 4 251 0
.seh_proc "print!@string!@-"
	subq	$88, %rsp
	.seh_stackalloc 88
	.seh_endprologue
	movq	%r9, 120(%rsp)
	leaq	120(%rsp), %r9
.Ltmp350:
	.cv_loc	53 4 253 15
	movq	%r9, 80(%rsp)
	.cv_loc	53 4 254 2
	vxorps	%xmm0, %xmm0, %xmm0
	vmovaps	%xmm0, 48(%rsp)
	leaq	48(%rsp), %rax
	movq	%rax, 72(%rsp)
	leaq	72(%rsp), %rcx
	callq	parse_format
.Ltmp351:
	.cv_inline_site_id 54 within 53 inlined_at 4 256 2
	.cv_loc	54 5 48 5
	movl	$-11, %ecx
	callq	GetStdHandle
.Ltmp352:
	.cv_loc	53 4 257 12
	movq	48(%rsp), %rdx
	movl	56(%rsp), %r8d
.Ltmp353:
	.cv_inline_site_id 55 within 53 inlined_at 4 257 12
	.cv_loc	55 5 40 2
	movq	$0, 40(%rsp)
.Ltmp354:
	.cv_loc	55 5 41 11
	movq	$0, 32(%rsp)
	leaq	40(%rsp), %r9
	movq	%rax, %rcx
	callq	WriteFile
.Ltmp355:
	.cv_loc	53 4 258 1
	nop
	addq	$88, %rsp
	retq
.Ltmp356:
.Lfunc_end13:
	.seh_endproc

	.def	copy;
	.scl	2;
	.type	32;
	.endef
	.globl	copy
	.p2align	4, 0x90
copy:
.Lfunc_begin14:
	.cv_func_id 56
	.cv_loc	56 4 262 0
	.cv_loc	56 4 265 2
	testq	%r9, %r9
	jle	.LBB14_7
.Ltmp357:
	xorl	%r10d, %r10d
	cmpq	$4, %r9
	jb	.LBB14_6
.Ltmp358:
	movq	%rdx, %rcx
	subq	%r8, %rcx
	cmpq	$4, %rcx
	jb	.LBB14_6
.Ltmp359:
	movq	%r9, %r10
	andq	$-4, %r10
	xorl	%ecx, %ecx
.Ltmp360:
	.p2align	4, 0x90
.LBB14_4:
	.cv_loc	56 4 267 3
	movl	(%r8,%rcx), %eax
	movl	%eax, (%rdx,%rcx)
	addq	$4, %rcx
	cmpq	%rcx, %r10
	jne	.LBB14_4
.Ltmp361:
	.cv_loc	56 4 265 2
	cmpq	%r9, %r10
	je	.LBB14_7
.Ltmp362:
	.p2align	4, 0x90
.LBB14_6:
	.cv_loc	56 4 267 3
	movzbl	(%r8,%r10), %eax
	movb	%al, (%rdx,%r10)
	incq	%r10
.Ltmp363:
	.cv_loc	56 4 265 2
	cmpq	%r9, %r10
	jl	.LBB14_6
.Ltmp364:
.LBB14_7:
	.cv_loc	56 4 269 1
	retq
.Ltmp365:
.Lfunc_end14:

	.def	len;
	.scl	2;
	.type	32;
	.endef
	.globl	len
	.p2align	4, 0x90
len:
.Lfunc_begin15:
	.cv_func_id 57
	.cv_loc	57 4 272 0
	movq	$-1, %rax
.Ltmp366:
	.p2align	4, 0x90
.LBB15_1:
	.cv_loc	57 4 274 2
	cmpb	$0, 1(%rdx,%rax)
	leaq	1(%rax), %rax
.Ltmp367:
	jne	.LBB15_1
.Ltmp368:
	.cv_loc	57 4 275 5
	retq
.Ltmp369:
.Lfunc_end15:

	.def	open_file;
	.scl	2;
	.type	32;
	.endef
	.globl	open_file
	.p2align	4, 0x90
open_file:
.Lfunc_begin16:
	.cv_func_id 58
	.cv_loc	58 5 27 0
.seh_proc open_file
	subq	$56, %rsp
	.seh_stackalloc 56
	.seh_endprologue
	movq	%rdx, %rcx
.Ltmp370:
	.cv_loc	58 5 29 2
	andl	$1, %r8d
	negl	%r8d
.Ltmp371:
	.cv_loc	58 5 35 5
	andl	$1180063, %r8d
.Ltmp372:
	.cv_loc	58 5 32 2
	movq	$0, 48(%rsp)
	movq	$32, 40(%rsp)
	movq	$4, 32(%rsp)
	movq	%r8, %rdx
	xorl	%r8d, %r8d
.Ltmp373:
	xorl	%r9d, %r9d
	callq	CreateFileA
.Ltmp374:
	.cv_loc	58 5 35 5
	nop
	addq	$56, %rsp
	retq
.Ltmp375:
.Lfunc_end16:
	.seh_endproc

	.def	write_file;
	.scl	2;
	.type	32;
	.endef
	.globl	write_file
	.p2align	4, 0x90
write_file:
.Lfunc_begin17:
	.cv_func_id 59
	.cv_loc	59 5 39 0
.seh_proc write_file
	pushq	%rsi
	.seh_pushreg %rsi
	subq	$64, %rsp
	.seh_stackalloc 64
	.seh_endprologue
	movl	%r9d, %esi
	movq	%rdx, %rcx
.Ltmp376:
	.cv_loc	59 5 40 2
	movq	$0, 56(%rsp)
.Ltmp377:
	.cv_loc	59 5 41 11
	movq	$0, 32(%rsp)
	leaq	56(%rsp), %r9
.Ltmp378:
	movq	%r8, %rdx
.Ltmp379:
	movl	%esi, %r8d
.Ltmp380:
	callq	WriteFile
.Ltmp381:
	.cv_loc	59 5 42 2
	cmpl	%esi, 56(%rsp)
	sete	%al
.Ltmp382:
	sete	55(%rsp)
	.cv_loc	59 5 43 5
	addq	$64, %rsp
	popq	%rsi
.Ltmp383:
	retq
.Ltmp384:
.Lfunc_end17:
	.seh_endproc

	.def	get_stdout;
	.scl	2;
	.type	32;
	.endef
	.globl	get_stdout
	.p2align	4, 0x90
get_stdout:
.Lfunc_begin18:
	.cv_func_id 60
	.cv_loc	60 5 47 0
.seh_proc get_stdout
	subq	$40, %rsp
	.seh_stackalloc 40
	.seh_endprologue
.Ltmp385:
	.cv_loc	60 5 48 5
	movl	$-11, %ecx
	callq	GetStdHandle
	nop
	addq	$40, %rsp
	retq
.Ltmp386:
.Lfunc_end18:
	.seh_endproc

	.def	"overload[]";
	.scl	2;
	.type	32;
	.endef
	.globl	"overload[]"
	.p2align	4, 0x90
"overload[]":
.Lfunc_begin19:
	.cv_func_id 61
	.cv_loc	61 4 61 5
	movb	(%rcx,%r8), %al
	retq
.Ltmp387:
.Lfunc_end19:

	.def	"overload+½“5[ç±";
	.scl	2;
	.type	32;
	.endef
	.globl	"overload+½“5[ç±"
	.p2align	4, 0x90
"overload+½“5[ç±":
.Lfunc_begin20:
	.cv_func_id 62
	.cv_loc	62 4 65 0
	pushq	%r15
	pushq	%r14
	pushq	%r12
	pushq	%rsi
	pushq	%rdi
	pushq	%rbx
	subq	$40, %rsp
	movq	%r8, %rsi
	movq	%rdx, %r15
	movq	%rcx, %r12
.Ltmp388:
	movq	$-1, %rbx
.Ltmp389:
	.p2align	4, 0x90
.LBB20_1:
	.cv_inline_site_id 63 within 62 inlined_at 4 67 2
	.cv_loc	63 4 274 2
	cmpb	$0, 1(%rsi,%rbx)
	leaq	1(%rbx), %rbx
.Ltmp390:
	jne	.LBB20_1
.Ltmp391:
	.cv_inline_site_id 64 within 62 inlined_at 4 69 2
	.cv_loc	64 3 14 2
	leaq	(%r15,%rbx), %r14
	movq	%r14, %rcx
	callq	malloc
	movq	%rax, %rdi
.Ltmp392:
	.cv_loc	64 3 15 8
	movq	%rax, %rcx
	xorl	%edx, %edx
	movq	%r14, %r8
	callq	memset
.Ltmp393:
	.cv_inline_site_id 65 within 62 inlined_at 4 70 6
	.cv_loc	65 4 265 2
	testq	%r15, %r15
	jle	.LBB20_9
.Ltmp394:
	xorl	%eax, %eax
	cmpq	$4, %r15
	jb	.LBB20_8
.Ltmp395:
	movq	%rdi, %rcx
	subq	%r12, %rcx
	cmpq	$4, %rcx
	jb	.LBB20_8
.Ltmp396:
	movq	%r15, %rax
	andq	$-4, %rax
	xorl	%ecx, %ecx
.Ltmp397:
	.p2align	4, 0x90
.LBB20_6:
	.cv_loc	65 4 267 3
	movl	(%r12,%rcx), %edx
	movl	%edx, (%rdi,%rcx)
	addq	$4, %rcx
	cmpq	%rcx, %rax
	jne	.LBB20_6
.Ltmp398:
	.cv_loc	65 4 265 2
	cmpq	%rax, %r15
	je	.LBB20_9
.Ltmp399:
	.p2align	4, 0x90
.LBB20_8:
	.cv_loc	65 4 267 3
	movzbl	(%r12,%rax), %ecx
	movb	%cl, (%rdi,%rax)
	incq	%rax
.Ltmp400:
	.cv_loc	65 4 265 2
	cmpq	%r15, %rax
	jl	.LBB20_8
.Ltmp401:
.LBB20_9:
	.cv_inline_site_id 66 within 62 inlined_at 4 71 6
	.cv_loc	66 4 265 2
	testq	%rbx, %rbx
	jle	.LBB20_11
.Ltmp402:
	.cv_loc	62 4 71 6
	movq	%rdi, %rcx
	addq	%r15, %rcx
.Ltmp403:
	.cv_loc	66 4 267 3
	movq	%rsi, %rdx
	movq	%rbx, %r8
	callq	memcpy
.Ltmp404:
.LBB20_11:
	.cv_loc	62 4 72 5
	movq	%rdi, %rax
	movq	%r14, %rdx
	addq	$40, %rsp
	popq	%rbx
	popq	%rdi
.Ltmp405:
	popq	%rsi
	popq	%r12
.Ltmp406:
	popq	%r14
	popq	%r15
.Ltmp407:
	retq
.Ltmp408:
.Lfunc_end20:

	.def	"overload[x]=";
	.scl	2;
	.type	32;
	.endef
	.globl	"overload[x]="
	.p2align	4, 0x90
"overload[x]=":
.Lfunc_begin21:
	.cv_func_id 67
	.cv_loc	67 4 76 0
	pushq	%r15
	pushq	%r14
	pushq	%r12
	pushq	%rsi
	pushq	%rdi
	pushq	%rbp
	pushq	%rbx
.Ltmp409:
	movq	$-1, %r11
.Ltmp410:
	.p2align	4, 0x90
.LBB21_1:
	.cv_inline_site_id 68 within 67 inlined_at 4 77 2
	.cv_loc	68 4 274 2
	cmpb	$0, 1(%rdx,%r11)
	leaq	1(%r11), %r11
.Ltmp411:
	jne	.LBB21_1
.Ltmp412:
	.cv_loc	67 4 78 2
	leaq	255(%r11), %r8
	testq	%r11, %r11
	cmovnsq	%r11, %r8
.Ltmp413:
	.cv_loc	67 4 80 2
	cmpq	$-255, %r11
	jl	.LBB21_14
.Ltmp414:
	sarq	$8, %r8
	xorl	%r9d, %r9d
	movabsq	$9223372036854775804, %r10
	movq	%rdx, %r12
	jmp	.LBB21_4
.Ltmp415:
	.p2align	4, 0x90
.LBB21_13:
	.cv_loc	67 4 84 3
	addq	%rsi, 256(%rcx)
	.cv_loc	67 4 85 3
	addq	$-256, %r11
.Ltmp416:
	.cv_loc	67 4 86 3
	movq	264(%rcx), %rcx
.Ltmp417:
	leaq	1(%r9), %rax
.Ltmp418:
	.cv_loc	67 4 80 2
	addq	$256, %r12
	cmpq	%r8, %r9
	movq	%rax, %r9
	jge	.LBB21_14
.Ltmp419:
.LBB21_4:
	.cv_loc	68 4 274 2
	cmpq	$256, %r11
	movl	$256, %esi
	cmovlq	%r11, %rsi
.Ltmp420:
	cmpq	$2, %rsi
	movl	$1, %r14d
	cmovgeq	%rsi, %r14
.Ltmp421:
	.cv_inline_site_id 69 within 67 inlined_at 4 83 7
	.cv_loc	69 4 265 2
	testq	%r11, %r11
	jle	.LBB21_13
.Ltmp422:
	movq	256(%rcx), %rdi
	addq	%rcx, %rdi
	cmpq	$8, %r14
	jae	.LBB21_7
.Ltmp423:
	xorl	%ebx, %ebx
	jmp	.LBB21_12
.Ltmp424:
	.p2align	4, 0x90
.LBB21_7:
	movq	%r9, %rax
	shlq	$8, %rax
	addq	%rdx, %rax
	movq	%rdi, %rbx
	subq	%rax, %rbx
	cmpq	$4, %rbx
	jae	.LBB21_9
.Ltmp425:
	xorl	%ebx, %ebx
	jmp	.LBB21_12
.Ltmp426:
.LBB21_9:
	movl	%r14d, %r15d
	andl	$508, %r15d
	movq	%r14, %rbx
	andq	%r10, %rbx
	xorl	%eax, %eax
.Ltmp427:
	.p2align	4, 0x90
.LBB21_10:
	.cv_loc	69 4 267 3
	movl	(%r12,%rax), %ebp
	movl	%ebp, (%rdi,%rax)
	addq	$4, %rax
	cmpq	%rax, %r15
	jne	.LBB21_10
.Ltmp428:
	.cv_loc	69 4 265 2
	cmpq	%rbx, %r14
	je	.LBB21_13
.Ltmp429:
	.p2align	4, 0x90
.LBB21_12:
	.cv_loc	69 4 267 3
	movzbl	(%r12,%rbx), %eax
	movb	%al, (%rdi,%rbx)
	incq	%rbx
.Ltmp430:
	.cv_loc	69 4 265 2
	cmpq	%rsi, %rbx
	jl	.LBB21_12
	jmp	.LBB21_13
.Ltmp431:
.LBB21_14:
	.cv_loc	67 4 89 1
	popq	%rbx
	popq	%rbp
	popq	%rdi
	popq	%rsi
	popq	%r12
	popq	%r14
	popq	%r15
	retq
.Ltmp432:
.Lfunc_end21:

	.def	"overload[x]=.10";
	.scl	2;
	.type	32;
	.endef
	.globl	"overload[x]=.10"
	.p2align	4, 0x90
"overload[x]=.10":
.Lfunc_begin22:
	.cv_func_id 70
	.cv_loc	70 4 92 0
	pushq	%rsi
	pushq	%rdi
	pushq	%rbx
	subq	$32, %rsp
.Ltmp433:
	movl	%edx, %ebx
	movq	%rcx, %rsi
.Ltmp434:
	.cv_loc	70 4 94 2
	movq	256(%rcx), %rax
	testq	%rcx, %rcx
	je	.LBB22_9
.Ltmp435:
	cmpq	$256, %rax
	jne	.LBB22_9
.Ltmp436:
	leaq	256(%rsi), %rdi
.Ltmp437:
	.p2align	4, 0x90
.LBB22_3:
	.cv_loc	70 4 95 3
	cmpq	$0, 264(%rsi)
	.cv_loc	70 4 99 4
	je	.LBB22_4
.Ltmp438:
	.cv_loc	70 4 98 3
	cmpq	$256, (%rdi)
	.cv_loc	70 4 99 4
	jne	.LBB22_7
.Ltmp439:
.LBB22_6:
	movq	264(%rsi), %rsi
.Ltmp440:
.LBB22_7:
	.cv_loc	70 4 94 2
	movq	256(%rsi), %rax
	testq	%rsi, %rsi
	je	.LBB22_9
.Ltmp441:
	leaq	256(%rsi), %rdi
	cmpq	$256, %rax
	je	.LBB22_3
	jmp	.LBB22_9
.Ltmp442:
	.p2align	4, 0x90
.LBB22_4:
	.cv_inline_site_id 71 within 70 inlined_at 4 96 4
	.cv_loc	71 3 14 2
	movl	$272, %ecx
	vzeroupper
	callq	malloc
.Ltmp443:
	vxorps	%xmm0, %xmm0, %xmm0
	.cv_loc	71 3 15 8
	vmovups	%ymm0, (%rax)
	vmovups	%ymm0, 32(%rax)
	vmovups	%ymm0, 64(%rax)
	vmovups	%ymm0, 96(%rax)
	vmovups	%ymm0, 128(%rax)
	vmovups	%ymm0, 160(%rax)
	vmovups	%ymm0, 192(%rax)
	vmovups	%ymm0, 224(%rax)
	vmovups	%ymm0, 240(%rax)
.Ltmp444:
	.cv_loc	70 4 96 4
	movq	%rax, 264(%rsi)
	.cv_loc	70 4 98 3
	cmpq	$256, (%rdi)
	.cv_loc	70 4 99 4
	je	.LBB22_6
	jmp	.LBB22_7
.Ltmp445:
.LBB22_9:
	.cv_loc	70 4 101 2
	movb	%bl, (%rsi,%rax)
	.cv_loc	70 4 102 2
	incq	256(%rsi)
	.cv_loc	70 4 103 1
	addq	$32, %rsp
	popq	%rbx
	popq	%rdi
	popq	%rsi
	vzeroupper
	retq
.Ltmp446:
.Lfunc_end22:

	.def	overload;
	.scl	2;
	.type	32;
	.endef
	.globl	overload
	.p2align	4, 0x90
overload:
.Lfunc_begin23:
	.cv_func_id 72
	.cv_loc	72 4 106 0
	movq	$-1, %rax
.Ltmp447:
	.p2align	4, 0x90
.LBB23_1:
	.cv_inline_site_id 73 within 72 inlined_at 4 107 2
	.cv_loc	73 4 274 2
	cmpb	$0, 1(%r8,%rax)
	leaq	1(%rax), %rax
.Ltmp448:
	jne	.LBB23_1
.Ltmp449:
	.cv_inline_site_id 74 within 72 inlined_at 4 108 5
	.cv_loc	74 4 113 2
	cmpq	%rax, %rdx
	.cv_loc	74 4 116 2
	jne	.LBB23_7
.Ltmp450:
	movb	$1, %al
	testq	%rdx, %rdx
	jle	.LBB23_8
.Ltmp451:
	xorl	%r9d, %r9d
.Ltmp452:
	.p2align	4, 0x90
.LBB23_6:
	.cv_loc	74 4 117 3
	movzbl	(%rcx,%r9), %r10d
	cmpb	(%r8,%r9), %r10b
.Ltmp453:
	.cv_loc	74 4 117 38
	jne	.LBB23_7
.Ltmp454:
	incq	%r9
.Ltmp455:
	.cv_loc	74 4 116 2
	cmpq	%rdx, %r9
	jl	.LBB23_6
.Ltmp456:
.LBB23_8:
	.cv_loc	72 4 108 5
	retq
.Ltmp457:
.LBB23_7:
	xorl	%eax, %eax
	retq
.Ltmp458:
.Lfunc_end23:

	.data
	.globl	global_var
	.p2align	3
global_var:
	.quad	0x40ea862000000000

	.section	.rdata,"dr"
	.globl	global_var.1
global_var.1:
	.byte	1

	.globl	global_var.2
global_var.2:
	.byte	0

	.globl	global_var.3
	.p2align	3
global_var.3:
	.quad	0

	.globl	global_var.4
	.p2align	3
global_var.4:
	.quad	256

	.globl	global_var.5
	.p2align	3
global_var.5:
	.quad	65536

	.globl	global_var.6
	.p2align	3
global_var.6:
	.quad	131072

	.globl	global_var.7
	.p2align	3
global_var.7:
	.quad	262144

	.globl	global_var.8
	.p2align	3
global_var.8:
	.quad	524288

	.globl	global_var.9
	.p2align	3
global_var.9:
	.quad	1048576

.L__unnamed_1:
	.asciz	"The var 1 is %\nand var 2 is %"

.L__unnamed_2:
	.zero	1
